
ArbitraryWaveformGenerator.elf:     file format elf32-littlearm

Sections:
Idx Name          Size      VMA       LMA       File off  Algn
  0 .isr_vector   00000188  08000000  08000000  00001000  2**0
                  CONTENTS, ALLOC, LOAD, READONLY, DATA
  1 .text         00004838  08000190  08000190  00001190  2**4
                  CONTENTS, ALLOC, LOAD, READONLY, CODE
  2 .rodata       000002f8  080049c8  080049c8  000059c8  2**3
                  CONTENTS, ALLOC, LOAD, READONLY, DATA
  3 .ARM.extab    00000000  08004cc0  08004cc0  0000608c  2**0
                  CONTENTS, READONLY
  4 .ARM          00000008  08004cc0  08004cc0  00005cc0  2**2
                  CONTENTS, ALLOC, LOAD, READONLY, DATA
  5 .preinit_array 00000000  08004cc8  08004cc8  0000608c  2**0
                  CONTENTS, ALLOC, LOAD, DATA
  6 .init_array   00000004  08004cc8  08004cc8  00005cc8  2**2
                  CONTENTS, ALLOC, LOAD, READONLY, DATA
  7 .fini_array   00000004  08004ccc  08004ccc  00005ccc  2**2
                  CONTENTS, ALLOC, LOAD, READONLY, DATA
  8 .data         0000008c  20000000  08004cd0  00006000  2**2
                  CONTENTS, ALLOC, LOAD, DATA
  9 .bss          00000590  2000008c  08004d5c  0000608c  2**2
                  ALLOC
 10 ._user_heap_stack 00000604  2000061c  08004d5c  0000661c  2**0
                  ALLOC
 11 .ARM.attributes 00000030  00000000  00000000  0000608c  2**0
                  CONTENTS, READONLY
 12 .comment      00000043  00000000  00000000  000060bc  2**0
                  CONTENTS, READONLY
 13 .debug_frame  00000da0  00000000  00000000  00006100  2**2
                  CONTENTS, READONLY, DEBUGGING, OCTETS

Disassembly of section .text:

08000190 <__do_global_dtors_aux>:
 8000190:	b510      	push	{r4, lr}
 8000192:	4c05      	ldr	r4, [pc, #20]	@ (80001a8 <__do_global_dtors_aux+0x18>)
 8000194:	7823      	ldrb	r3, [r4, #0]
 8000196:	b933      	cbnz	r3, 80001a6 <__do_global_dtors_aux+0x16>
 8000198:	4b04      	ldr	r3, [pc, #16]	@ (80001ac <__do_global_dtors_aux+0x1c>)
 800019a:	b113      	cbz	r3, 80001a2 <__do_global_dtors_aux+0x12>
 800019c:	4804      	ldr	r0, [pc, #16]	@ (80001b0 <__do_global_dtors_aux+0x20>)
 800019e:	f3af 8000 	nop.w
 80001a2:	2301      	movs	r3, #1
 80001a4:	7023      	strb	r3, [r4, #0]
 80001a6:	bd10      	pop	{r4, pc}
 80001a8:	2000008c 	.word	0x2000008c
 80001ac:	00000000 	.word	0x00000000
 80001b0:	080049b0 	.word	0x080049b0

080001b4 <frame_dummy>:
 80001b4:	b508      	push	{r3, lr}
 80001b6:	4b03      	ldr	r3, [pc, #12]	@ (80001c4 <frame_dummy+0x10>)
 80001b8:	b11b      	cbz	r3, 80001c2 <frame_dummy+0xe>
 80001ba:	4903      	ldr	r1, [pc, #12]	@ (80001c8 <frame_dummy+0x14>)
 80001bc:	4803      	ldr	r0, [pc, #12]	@ (80001cc <frame_dummy+0x18>)
 80001be:	f3af 8000 	nop.w
 80001c2:	bd08      	pop	{r3, pc}
 80001c4:	00000000 	.word	0x00000000
 80001c8:	20000090 	.word	0x20000090
 80001cc:	080049b0 	.word	0x080049b0

080001d0 <memchr>:
 80001d0:	f001 01ff 	and.w	r1, r1, #255	@ 0xff
 80001d4:	2a10      	cmp	r2, #16
 80001d6:	db2b      	blt.n	8000230 <memchr+0x60>
 80001d8:	f010 0f07 	tst.w	r0, #7
 80001dc:	d008      	beq.n	80001f0 <memchr+0x20>
 80001de:	f810 3b01 	ldrb.w	r3, [r0], #1
 80001e2:	3a01      	subs	r2, #1
 80001e4:	428b      	cmp	r3, r1
 80001e6:	d02d      	beq.n	8000244 <memchr+0x74>
 80001e8:	f010 0f07 	tst.w	r0, #7
 80001ec:	b342      	cbz	r2, 8000240 <memchr+0x70>
 80001ee:	d1f6      	bne.n	80001de <memchr+0xe>
 80001f0:	b4f0      	push	{r4, r5, r6, r7}
 80001f2:	ea41 2101 	orr.w	r1, r1, r1, lsl #8
 80001f6:	ea41 4101 	orr.w	r1, r1, r1, lsl #16
 80001fa:	f022 0407 	bic.w	r4, r2, #7
 80001fe:	f07f 0700 	mvns.w	r7, #0
 8000202:	2300      	movs	r3, #0
 8000204:	e8f0 5602 	ldrd	r5, r6, [r0], #8
 8000208:	3c08      	subs	r4, #8
 800020a:	ea85 0501 	eor.w	r5, r5, r1
 800020e:	ea86 0601 	eor.w	r6, r6, r1
 8000212:	fa85 f547 	uadd8	r5, r5, r7
 8000216:	faa3 f587 	sel	r5, r3, r7
 800021a:	fa86 f647 	uadd8	r6, r6, r7
 800021e:	faa5 f687 	sel	r6, r5, r7
 8000222:	b98e      	cbnz	r6, 8000248 <memchr+0x78>
 8000224:	d1ee      	bne.n	8000204 <memchr+0x34>
 8000226:	bcf0      	pop	{r4, r5, r6, r7}
 8000228:	f001 01ff 	and.w	r1, r1, #255	@ 0xff
 800022c:	f002 0207 	and.w	r2, r2, #7
 8000230:	b132      	cbz	r2, 8000240 <memchr+0x70>
 8000232:	f810 3b01 	ldrb.w	r3, [r0], #1
 8000236:	3a01      	subs	r2, #1
 8000238:	ea83 0301 	eor.w	r3, r3, r1
 800023c:	b113      	cbz	r3, 8000244 <memchr+0x74>
 800023e:	d1f8      	bne.n	8000232 <memchr+0x62>
 8000240:	2000      	movs	r0, #0
 8000242:	4770      	bx	lr
 8000244:	3801      	subs	r0, #1
 8000246:	4770      	bx	lr
 8000248:	2d00      	cmp	r5, #0
 800024a:	bf06      	itte	eq
 800024c:	4635      	moveq	r5, r6
 800024e:	3803      	subeq	r0, #3
 8000250:	3807      	subne	r0, #7
 8000252:	f015 0f01 	tst.w	r5, #1
 8000256:	d107      	bne.n	8000268 <memchr+0x98>
 8000258:	3001      	adds	r0, #1
 800025a:	f415 7f80 	tst.w	r5, #256	@ 0x100
 800025e:	bf02      	ittt	eq
 8000260:	3001      	addeq	r0, #1
 8000262:	f415 3fc0 	tsteq.w	r5, #98304	@ 0x18000
 8000266:	3001      	addeq	r0, #1
 8000268:	bcf0      	pop	{r4, r5, r6, r7}
 800026a:	3801      	subs	r0, #1
 800026c:	4770      	bx	lr
 800026e:	bf00      	nop

08000270 <__aeabi_drsub>:
 8000270:	f081 4100 	eor.w	r1, r1, #2147483648	@ 0x80000000
 8000274:	e002      	b.n	800027c <__adddf3>
 8000276:	bf00      	nop

08000278 <__aeabi_dsub>:
 8000278:	f083 4300 	eor.w	r3, r3, #2147483648	@ 0x80000000

0800027c <__adddf3>:
 800027c:	b530      	push	{r4, r5, lr}
 800027e:	ea4f 0441 	mov.w	r4, r1, lsl #1
 8000282:	ea4f 0543 	mov.w	r5, r3, lsl #1
 8000286:	ea94 0f05 	teq	r4, r5
 800028a:	bf08      	it	eq
 800028c:	ea90 0f02 	teqeq	r0, r2
 8000290:	bf1f      	itttt	ne
 8000292:	ea54 0c00 	orrsne.w	ip, r4, r0
 8000296:	ea55 0c02 	orrsne.w	ip, r5, r2
 800029a:	ea7f 5c64 	mvnsne.w	ip, r4, asr #21
 800029e:	ea7f 5c65 	mvnsne.w	ip, r5, asr #21
 80002a2:	f000 80e2 	beq.w	800046a <__adddf3+0x1ee>
 80002a6:	ea4f 5454 	mov.w	r4, r4, lsr #21
 80002aa:	ebd4 5555 	rsbs	r5, r4, r5, lsr #21
 80002ae:	bfb8      	it	lt
 80002b0:	426d      	neglt	r5, r5
 80002b2:	dd0c      	ble.n	80002ce <__adddf3+0x52>
 80002b4:	442c      	add	r4, r5
 80002b6:	ea80 0202 	eor.w	r2, r0, r2
 80002ba:	ea81 0303 	eor.w	r3, r1, r3
 80002be:	ea82 0000 	eor.w	r0, r2, r0
 80002c2:	ea83 0101 	eor.w	r1, r3, r1
 80002c6:	ea80 0202 	eor.w	r2, r0, r2
 80002ca:	ea81 0303 	eor.w	r3, r1, r3
 80002ce:	2d36      	cmp	r5, #54	@ 0x36
 80002d0:	bf88      	it	hi
 80002d2:	bd30      	pophi	{r4, r5, pc}
 80002d4:	f011 4f00 	tst.w	r1, #2147483648	@ 0x80000000
 80002d8:	ea4f 3101 	mov.w	r1, r1, lsl #12
 80002dc:	f44f 1c80 	mov.w	ip, #1048576	@ 0x100000
 80002e0:	ea4c 3111 	orr.w	r1, ip, r1, lsr #12
 80002e4:	d002      	beq.n	80002ec <__adddf3+0x70>
 80002e6:	4240      	negs	r0, r0
 80002e8:	eb61 0141 	sbc.w	r1, r1, r1, lsl #1
 80002ec:	f013 4f00 	tst.w	r3, #2147483648	@ 0x80000000
 80002f0:	ea4f 3303 	mov.w	r3, r3, lsl #12
 80002f4:	ea4c 3313 	orr.w	r3, ip, r3, lsr #12
 80002f8:	d002      	beq.n	8000300 <__adddf3+0x84>
 80002fa:	4252      	negs	r2, r2
 80002fc:	eb63 0343 	sbc.w	r3, r3, r3, lsl #1
 8000300:	ea94 0f05 	teq	r4, r5
 8000304:	f000 80a7 	beq.w	8000456 <__adddf3+0x1da>
 8000308:	f1a4 0401 	sub.w	r4, r4, #1
 800030c:	f1d5 0e20 	rsbs	lr, r5, #32
 8000310:	db0d      	blt.n	800032e <__adddf3+0xb2>
 8000312:	fa02 fc0e 	lsl.w	ip, r2, lr
 8000316:	fa22 f205 	lsr.w	r2, r2, r5
 800031a:	1880      	adds	r0, r0, r2
 800031c:	f141 0100 	adc.w	r1, r1, #0
 8000320:	fa03 f20e 	lsl.w	r2, r3, lr
 8000324:	1880      	adds	r0, r0, r2
 8000326:	fa43 f305 	asr.w	r3, r3, r5
 800032a:	4159      	adcs	r1, r3
 800032c:	e00e      	b.n	800034c <__adddf3+0xd0>
 800032e:	f1a5 0520 	sub.w	r5, r5, #32
 8000332:	f10e 0e20 	add.w	lr, lr, #32
 8000336:	2a01      	cmp	r2, #1
 8000338:	fa03 fc0e 	lsl.w	ip, r3, lr
 800033c:	bf28      	it	cs
 800033e:	f04c 0c02 	orrcs.w	ip, ip, #2
 8000342:	fa43 f305 	asr.w	r3, r3, r5
 8000346:	18c0      	adds	r0, r0, r3
 8000348:	eb51 71e3 	adcs.w	r1, r1, r3, asr #31
 800034c:	f001 4500 	and.w	r5, r1, #2147483648	@ 0x80000000
 8000350:	d507      	bpl.n	8000362 <__adddf3+0xe6>
 8000352:	f04f 0e00 	mov.w	lr, #0
 8000356:	f1dc 0c00 	rsbs	ip, ip, #0
 800035a:	eb7e 0000 	sbcs.w	r0, lr, r0
 800035e:	eb6e 0101 	sbc.w	r1, lr, r1
 8000362:	f5b1 1f80 	cmp.w	r1, #1048576	@ 0x100000
 8000366:	d31b      	bcc.n	80003a0 <__adddf3+0x124>
 8000368:	f5b1 1f00 	cmp.w	r1, #2097152	@ 0x200000
 800036c:	d30c      	bcc.n	8000388 <__adddf3+0x10c>
 800036e:	0849      	lsrs	r1, r1, #1
 8000370:	ea5f 0030 	movs.w	r0, r0, rrx
 8000374:	ea4f 0c3c 	mov.w	ip, ip, rrx
 8000378:	f104 0401 	add.w	r4, r4, #1
 800037c:	ea4f 5244 	mov.w	r2, r4, lsl #21
 8000380:	f512 0f80 	cmn.w	r2, #4194304	@ 0x400000
 8000384:	f080 809a 	bcs.w	80004bc <__adddf3+0x240>
 8000388:	f1bc 4f00 	cmp.w	ip, #2147483648	@ 0x80000000
 800038c:	bf08      	it	eq
 800038e:	ea5f 0c50 	movseq.w	ip, r0, lsr #1
 8000392:	f150 0000 	adcs.w	r0, r0, #0
 8000396:	eb41 5104 	adc.w	r1, r1, r4, lsl #20
 800039a:	ea41 0105 	orr.w	r1, r1, r5
 800039e:	bd30      	pop	{r4, r5, pc}
 80003a0:	ea5f 0c4c 	movs.w	ip, ip, lsl #1
 80003a4:	4140      	adcs	r0, r0
 80003a6:	eb41 0101 	adc.w	r1, r1, r1
 80003aa:	3c01      	subs	r4, #1
 80003ac:	bf28      	it	cs
 80003ae:	f5b1 1f80 	cmpcs.w	r1, #1048576	@ 0x100000
 80003b2:	d2e9      	bcs.n	8000388 <__adddf3+0x10c>
 80003b4:	f091 0f00 	teq	r1, #0
 80003b8:	bf04      	itt	eq
 80003ba:	4601      	moveq	r1, r0
 80003bc:	2000      	moveq	r0, #0
 80003be:	fab1 f381 	clz	r3, r1
 80003c2:	bf08      	it	eq
 80003c4:	3320      	addeq	r3, #32
 80003c6:	f1a3 030b 	sub.w	r3, r3, #11
 80003ca:	f1b3 0220 	subs.w	r2, r3, #32
 80003ce:	da0c      	bge.n	80003ea <__adddf3+0x16e>
 80003d0:	320c      	adds	r2, #12
 80003d2:	dd08      	ble.n	80003e6 <__adddf3+0x16a>
 80003d4:	f102 0c14 	add.w	ip, r2, #20
 80003d8:	f1c2 020c 	rsb	r2, r2, #12
 80003dc:	fa01 f00c 	lsl.w	r0, r1, ip
 80003e0:	fa21 f102 	lsr.w	r1, r1, r2
 80003e4:	e00c      	b.n	8000400 <__adddf3+0x184>
 80003e6:	f102 0214 	add.w	r2, r2, #20
 80003ea:	bfd8      	it	le
 80003ec:	f1c2 0c20 	rsble	ip, r2, #32
 80003f0:	fa01 f102 	lsl.w	r1, r1, r2
 80003f4:	fa20 fc0c 	lsr.w	ip, r0, ip
 80003f8:	bfdc      	itt	le
 80003fa:	ea41 010c 	orrle.w	r1, r1, ip
 80003fe:	4090      	lslle	r0, r2
 8000400:	1ae4      	subs	r4, r4, r3
 8000402:	bfa2      	ittt	ge
 8000404:	eb01 5104 	addge.w	r1, r1, r4, lsl #20
 8000408:	4329      	orrge	r1, r5
 800040a:	bd30      	popge	{r4, r5, pc}
 800040c:	ea6f 0404 	mvn.w	r4, r4
 8000410:	3c1f      	subs	r4, #31
 8000412:	da1c      	bge.n	800044e <__adddf3+0x1d2>
 8000414:	340c      	adds	r4, #12
 8000416:	dc0e      	bgt.n	8000436 <__adddf3+0x1ba>
 8000418:	f104 0414 	add.w	r4, r4, #20
 800041c:	f1c4 0220 	rsb	r2, r4, #32
 8000420:	fa20 f004 	lsr.w	r0, r0, r4
 8000424:	fa01 f302 	lsl.w	r3, r1, r2
 8000428:	ea40 0003 	orr.w	r0, r0, r3
 800042c:	fa21 f304 	lsr.w	r3, r1, r4
 8000430:	ea45 0103 	orr.w	r1, r5, r3
 8000434:	bd30      	pop	{r4, r5, pc}
 8000436:	f1c4 040c 	rsb	r4, r4, #12
 800043a:	f1c4 0220 	rsb	r2, r4, #32
 800043e:	fa20 f002 	lsr.w	r0, r0, r2
 8000442:	fa01 f304 	lsl.w	r3, r1, r4
 8000446:	ea40 0003 	orr.w	r0, r0, r3
 800044a:	4629      	mov	r1, r5
 800044c:	bd30      	pop	{r4, r5, pc}
 800044e:	fa21 f004 	lsr.w	r0, r1, r4
 8000452:	4629      	mov	r1, r5
 8000454:	bd30      	pop	{r4, r5, pc}
 8000456:	f094 0f00 	teq	r4, #0
 800045a:	f483 1380 	eor.w	r3, r3, #1048576	@ 0x100000
 800045e:	bf06      	itte	eq
 8000460:	f481 1180 	eoreq.w	r1, r1, #1048576	@ 0x100000
 8000464:	3401      	addeq	r4, #1
 8000466:	3d01      	subne	r5, #1
 8000468:	e74e      	b.n	8000308 <__adddf3+0x8c>
 800046a:	ea7f 5c64 	mvns.w	ip, r4, asr #21
 800046e:	bf18      	it	ne
 8000470:	ea7f 5c65 	mvnsne.w	ip, r5, asr #21
 8000474:	d029      	beq.n	80004ca <__adddf3+0x24e>
 8000476:	ea94 0f05 	teq	r4, r5
 800047a:	bf08      	it	eq
 800047c:	ea90 0f02 	teqeq	r0, r2
 8000480:	d005      	beq.n	800048e <__adddf3+0x212>
 8000482:	ea54 0c00 	orrs.w	ip, r4, r0
 8000486:	bf04      	itt	eq
 8000488:	4619      	moveq	r1, r3
 800048a:	4610      	moveq	r0, r2
 800048c:	bd30      	pop	{r4, r5, pc}
 800048e:	ea91 0f03 	teq	r1, r3
 8000492:	bf1e      	ittt	ne
 8000494:	2100      	movne	r1, #0
 8000496:	2000      	movne	r0, #0
 8000498:	bd30      	popne	{r4, r5, pc}
 800049a:	ea5f 5c54 	movs.w	ip, r4, lsr #21
 800049e:	d105      	bne.n	80004ac <__adddf3+0x230>
 80004a0:	0040      	lsls	r0, r0, #1
 80004a2:	4149      	adcs	r1, r1
 80004a4:	bf28      	it	cs
 80004a6:	f041 4100 	orrcs.w	r1, r1, #2147483648	@ 0x80000000
 80004aa:	bd30      	pop	{r4, r5, pc}
 80004ac:	f514 0480 	adds.w	r4, r4, #4194304	@ 0x400000
 80004b0:	bf3c      	itt	cc
 80004b2:	f501 1180 	addcc.w	r1, r1, #1048576	@ 0x100000
 80004b6:	bd30      	popcc	{r4, r5, pc}
 80004b8:	f001 4500 	and.w	r5, r1, #2147483648	@ 0x80000000
 80004bc:	f045 41fe 	orr.w	r1, r5, #2130706432	@ 0x7f000000
 80004c0:	f441 0170 	orr.w	r1, r1, #15728640	@ 0xf00000
 80004c4:	f04f 0000 	mov.w	r0, #0
 80004c8:	bd30      	pop	{r4, r5, pc}
 80004ca:	ea7f 5c64 	mvns.w	ip, r4, asr #21
 80004ce:	bf1a      	itte	ne
 80004d0:	4619      	movne	r1, r3
 80004d2:	4610      	movne	r0, r2
 80004d4:	ea7f 5c65 	mvnseq.w	ip, r5, asr #21
 80004d8:	bf1c      	itt	ne
 80004da:	460b      	movne	r3, r1
 80004dc:	4602      	movne	r2, r0
 80004de:	ea50 3401 	orrs.w	r4, r0, r1, lsl #12
 80004e2:	bf06      	itte	eq
 80004e4:	ea52 3503 	orrseq.w	r5, r2, r3, lsl #12
 80004e8:	ea91 0f03 	teqeq	r1, r3
 80004ec:	f441 2100 	orrne.w	r1, r1, #524288	@ 0x80000
 80004f0:	bd30      	pop	{r4, r5, pc}
 80004f2:	bf00      	nop

080004f4 <__aeabi_ui2d>:
 80004f4:	f090 0f00 	teq	r0, #0
 80004f8:	bf04      	itt	eq
 80004fa:	2100      	moveq	r1, #0
 80004fc:	4770      	bxeq	lr
 80004fe:	b530      	push	{r4, r5, lr}
 8000500:	f44f 6480 	mov.w	r4, #1024	@ 0x400
 8000504:	f104 0432 	add.w	r4, r4, #50	@ 0x32
 8000508:	f04f 0500 	mov.w	r5, #0
 800050c:	f04f 0100 	mov.w	r1, #0
 8000510:	e750      	b.n	80003b4 <__adddf3+0x138>
 8000512:	bf00      	nop

08000514 <__aeabi_i2d>:
 8000514:	f090 0f00 	teq	r0, #0
 8000518:	bf04      	itt	eq
 800051a:	2100      	moveq	r1, #0
 800051c:	4770      	bxeq	lr
 800051e:	b530      	push	{r4, r5, lr}
 8000520:	f44f 6480 	mov.w	r4, #1024	@ 0x400
 8000524:	f104 0432 	add.w	r4, r4, #50	@ 0x32
 8000528:	f010 4500 	ands.w	r5, r0, #2147483648	@ 0x80000000
 800052c:	bf48      	it	mi
 800052e:	4240      	negmi	r0, r0
 8000530:	f04f 0100 	mov.w	r1, #0
 8000534:	e73e      	b.n	80003b4 <__adddf3+0x138>
 8000536:	bf00      	nop

08000538 <__aeabi_f2d>:
 8000538:	0042      	lsls	r2, r0, #1
 800053a:	ea4f 01e2 	mov.w	r1, r2, asr #3
 800053e:	ea4f 0131 	mov.w	r1, r1, rrx
 8000542:	ea4f 7002 	mov.w	r0, r2, lsl #28
 8000546:	bf1f      	itttt	ne
 8000548:	f012 437f 	andsne.w	r3, r2, #4278190080	@ 0xff000000
 800054c:	f093 4f7f 	teqne	r3, #4278190080	@ 0xff000000
 8000550:	f081 5160 	eorne.w	r1, r1, #939524096	@ 0x38000000
 8000554:	4770      	bxne	lr
 8000556:	f032 427f 	bics.w	r2, r2, #4278190080	@ 0xff000000
 800055a:	bf08      	it	eq
 800055c:	4770      	bxeq	lr
 800055e:	f093 4f7f 	teq	r3, #4278190080	@ 0xff000000
 8000562:	bf04      	itt	eq
 8000564:	f441 2100 	orreq.w	r1, r1, #524288	@ 0x80000
 8000568:	4770      	bxeq	lr
 800056a:	b530      	push	{r4, r5, lr}
 800056c:	f44f 7460 	mov.w	r4, #896	@ 0x380
 8000570:	f001 4500 	and.w	r5, r1, #2147483648	@ 0x80000000
 8000574:	f021 4100 	bic.w	r1, r1, #2147483648	@ 0x80000000
 8000578:	e71c      	b.n	80003b4 <__adddf3+0x138>
 800057a:	bf00      	nop

0800057c <__aeabi_ul2d>:
 800057c:	ea50 0201 	orrs.w	r2, r0, r1
 8000580:	bf08      	it	eq
 8000582:	4770      	bxeq	lr
 8000584:	b530      	push	{r4, r5, lr}
 8000586:	f04f 0500 	mov.w	r5, #0
 800058a:	e00a      	b.n	80005a2 <__aeabi_l2d+0x16>

0800058c <__aeabi_l2d>:
 800058c:	ea50 0201 	orrs.w	r2, r0, r1
 8000590:	bf08      	it	eq
 8000592:	4770      	bxeq	lr
 8000594:	b530      	push	{r4, r5, lr}
 8000596:	f011 4500 	ands.w	r5, r1, #2147483648	@ 0x80000000
 800059a:	d502      	bpl.n	80005a2 <__aeabi_l2d+0x16>
 800059c:	4240      	negs	r0, r0
 800059e:	eb61 0141 	sbc.w	r1, r1, r1, lsl #1
 80005a2:	f44f 6480 	mov.w	r4, #1024	@ 0x400
 80005a6:	f104 0432 	add.w	r4, r4, #50	@ 0x32
 80005aa:	ea5f 5c91 	movs.w	ip, r1, lsr #22
 80005ae:	f43f aed8 	beq.w	8000362 <__adddf3+0xe6>
 80005b2:	f04f 0203 	mov.w	r2, #3
 80005b6:	ea5f 0cdc 	movs.w	ip, ip, lsr #3
 80005ba:	bf18      	it	ne
 80005bc:	3203      	addne	r2, #3
 80005be:	ea5f 0cdc 	movs.w	ip, ip, lsr #3
 80005c2:	bf18      	it	ne
 80005c4:	3203      	addne	r2, #3
 80005c6:	eb02 02dc 	add.w	r2, r2, ip, lsr #3
 80005ca:	f1c2 0320 	rsb	r3, r2, #32
 80005ce:	fa00 fc03 	lsl.w	ip, r0, r3
 80005d2:	fa20 f002 	lsr.w	r0, r0, r2
 80005d6:	fa01 fe03 	lsl.w	lr, r1, r3
 80005da:	ea40 000e 	orr.w	r0, r0, lr
 80005de:	fa21 f102 	lsr.w	r1, r1, r2
 80005e2:	4414      	add	r4, r2
 80005e4:	e6bd      	b.n	8000362 <__adddf3+0xe6>
 80005e6:	bf00      	nop

080005e8 <__aeabi_dmul>:
 80005e8:	b570      	push	{r4, r5, r6, lr}
 80005ea:	f04f 0cff 	mov.w	ip, #255	@ 0xff
 80005ee:	f44c 6ce0 	orr.w	ip, ip, #1792	@ 0x700
 80005f2:	ea1c 5411 	ands.w	r4, ip, r1, lsr #20
 80005f6:	bf1d      	ittte	ne
 80005f8:	ea1c 5513 	andsne.w	r5, ip, r3, lsr #20
 80005fc:	ea94 0f0c 	teqne	r4, ip
 8000600:	ea95 0f0c 	teqne	r5, ip
 8000604:	f000 f8de 	bleq	80007c4 <__aeabi_dmul+0x1dc>
 8000608:	442c      	add	r4, r5
 800060a:	ea81 0603 	eor.w	r6, r1, r3
 800060e:	ea21 514c 	bic.w	r1, r1, ip, lsl #21
 8000612:	ea23 534c 	bic.w	r3, r3, ip, lsl #21
 8000616:	ea50 3501 	orrs.w	r5, r0, r1, lsl #12
 800061a:	bf18      	it	ne
 800061c:	ea52 3503 	orrsne.w	r5, r2, r3, lsl #12
 8000620:	f441 1180 	orr.w	r1, r1, #1048576	@ 0x100000
 8000624:	f443 1380 	orr.w	r3, r3, #1048576	@ 0x100000
 8000628:	d038      	beq.n	800069c <__aeabi_dmul+0xb4>
 800062a:	fba0 ce02 	umull	ip, lr, r0, r2
 800062e:	f04f 0500 	mov.w	r5, #0
 8000632:	fbe1 e502 	umlal	lr, r5, r1, r2
 8000636:	f006 4200 	and.w	r2, r6, #2147483648	@ 0x80000000
 800063a:	fbe0 e503 	umlal	lr, r5, r0, r3
 800063e:	f04f 0600 	mov.w	r6, #0
 8000642:	fbe1 5603 	umlal	r5, r6, r1, r3
 8000646:	f09c 0f00 	teq	ip, #0
 800064a:	bf18      	it	ne
 800064c:	f04e 0e01 	orrne.w	lr, lr, #1
 8000650:	f1a4 04ff 	sub.w	r4, r4, #255	@ 0xff
 8000654:	f5b6 7f00 	cmp.w	r6, #512	@ 0x200
 8000658:	f564 7440 	sbc.w	r4, r4, #768	@ 0x300
 800065c:	d204      	bcs.n	8000668 <__aeabi_dmul+0x80>
 800065e:	ea5f 0e4e 	movs.w	lr, lr, lsl #1
 8000662:	416d      	adcs	r5, r5
 8000664:	eb46 0606 	adc.w	r6, r6, r6
 8000668:	ea42 21c6 	orr.w	r1, r2, r6, lsl #11
 800066c:	ea41 5155 	orr.w	r1, r1, r5, lsr #21
 8000670:	ea4f 20c5 	mov.w	r0, r5, lsl #11
 8000674:	ea40 505e 	orr.w	r0, r0, lr, lsr #21
 8000678:	ea4f 2ece 	mov.w	lr, lr, lsl #11
 800067c:	f1b4 0cfd 	subs.w	ip, r4, #253	@ 0xfd
 8000680:	bf88      	it	hi
 8000682:	f5bc 6fe0 	cmphi.w	ip, #1792	@ 0x700
 8000686:	d81e      	bhi.n	80006c6 <__aeabi_dmul+0xde>
 8000688:	f1be 4f00 	cmp.w	lr, #2147483648	@ 0x80000000
 800068c:	bf08      	it	eq
 800068e:	ea5f 0e50 	movseq.w	lr, r0, lsr #1
 8000692:	f150 0000 	adcs.w	r0, r0, #0
 8000696:	eb41 5104 	adc.w	r1, r1, r4, lsl #20
 800069a:	bd70      	pop	{r4, r5, r6, pc}
 800069c:	f006 4600 	and.w	r6, r6, #2147483648	@ 0x80000000
 80006a0:	ea46 0101 	orr.w	r1, r6, r1
 80006a4:	ea40 0002 	orr.w	r0, r0, r2
 80006a8:	ea81 0103 	eor.w	r1, r1, r3
 80006ac:	ebb4 045c 	subs.w	r4, r4, ip, lsr #1
 80006b0:	bfc2      	ittt	gt
 80006b2:	ebd4 050c 	rsbsgt	r5, r4, ip
 80006b6:	ea41 5104 	orrgt.w	r1, r1, r4, lsl #20
 80006ba:	bd70      	popgt	{r4, r5, r6, pc}
 80006bc:	f441 1180 	orr.w	r1, r1, #1048576	@ 0x100000
 80006c0:	f04f 0e00 	mov.w	lr, #0
 80006c4:	3c01      	subs	r4, #1
 80006c6:	f300 80ab 	bgt.w	8000820 <__aeabi_dmul+0x238>
 80006ca:	f114 0f36 	cmn.w	r4, #54	@ 0x36
 80006ce:	bfde      	ittt	le
 80006d0:	2000      	movle	r0, #0
 80006d2:	f001 4100 	andle.w	r1, r1, #2147483648	@ 0x80000000
 80006d6:	bd70      	pople	{r4, r5, r6, pc}
 80006d8:	f1c4 0400 	rsb	r4, r4, #0
 80006dc:	3c20      	subs	r4, #32
 80006de:	da35      	bge.n	800074c <__aeabi_dmul+0x164>
 80006e0:	340c      	adds	r4, #12
 80006e2:	dc1b      	bgt.n	800071c <__aeabi_dmul+0x134>
 80006e4:	f104 0414 	add.w	r4, r4, #20
 80006e8:	f1c4 0520 	rsb	r5, r4, #32
 80006ec:	fa00 f305 	lsl.w	r3, r0, r5
 80006f0:	fa20 f004 	lsr.w	r0, r0, r4
 80006f4:	fa01 f205 	lsl.w	r2, r1, r5
 80006f8:	ea40 0002 	orr.w	r0, r0, r2
 80006fc:	f001 4200 	and.w	r2, r1, #2147483648	@ 0x80000000
 8000700:	f021 4100 	bic.w	r1, r1, #2147483648	@ 0x80000000
 8000704:	eb10 70d3 	adds.w	r0, r0, r3, lsr #31
 8000708:	fa21 f604 	lsr.w	r6, r1, r4
 800070c:	eb42 0106 	adc.w	r1, r2, r6
 8000710:	ea5e 0e43 	orrs.w	lr, lr, r3, lsl #1
 8000714:	bf08      	it	eq
 8000716:	ea20 70d3 	biceq.w	r0, r0, r3, lsr #31
 800071a:	bd70      	pop	{r4, r5, r6, pc}
 800071c:	f1c4 040c 	rsb	r4, r4, #12
 8000720:	f1c4 0520 	rsb	r5, r4, #32
 8000724:	fa00 f304 	lsl.w	r3, r0, r4
 8000728:	fa20 f005 	lsr.w	r0, r0, r5
 800072c:	fa01 f204 	lsl.w	r2, r1, r4
 8000730:	ea40 0002 	orr.w	r0, r0, r2
 8000734:	f001 4100 	and.w	r1, r1, #2147483648	@ 0x80000000
 8000738:	eb10 70d3 	adds.w	r0, r0, r3, lsr #31
 800073c:	f141 0100 	adc.w	r1, r1, #0
 8000740:	ea5e 0e43 	orrs.w	lr, lr, r3, lsl #1
 8000744:	bf08      	it	eq
 8000746:	ea20 70d3 	biceq.w	r0, r0, r3, lsr #31
 800074a:	bd70      	pop	{r4, r5, r6, pc}
 800074c:	f1c4 0520 	rsb	r5, r4, #32
 8000750:	fa00 f205 	lsl.w	r2, r0, r5
 8000754:	ea4e 0e02 	orr.w	lr, lr, r2
 8000758:	fa20 f304 	lsr.w	r3, r0, r4
 800075c:	fa01 f205 	lsl.w	r2, r1, r5
 8000760:	ea43 0302 	orr.w	r3, r3, r2
 8000764:	fa21 f004 	lsr.w	r0, r1, r4
 8000768:	f001 4100 	and.w	r1, r1, #2147483648	@ 0x80000000
 800076c:	fa21 f204 	lsr.w	r2, r1, r4
 8000770:	ea20 0002 	bic.w	r0, r0, r2
 8000774:	eb00 70d3 	add.w	r0, r0, r3, lsr #31
 8000778:	ea5e 0e43 	orrs.w	lr, lr, r3, lsl #1
 800077c:	bf08      	it	eq
 800077e:	ea20 70d3 	biceq.w	r0, r0, r3, lsr #31
 8000782:	bd70      	pop	{r4, r5, r6, pc}
 8000784:	f094 0f00 	teq	r4, #0
 8000788:	d10f      	bne.n	80007aa <__aeabi_dmul+0x1c2>
 800078a:	f001 4600 	and.w	r6, r1, #2147483648	@ 0x80000000
 800078e:	0040      	lsls	r0, r0, #1
 8000790:	eb41 0101 	adc.w	r1, r1, r1
 8000794:	f411 1f80 	tst.w	r1, #1048576	@ 0x100000
 8000798:	bf08      	it	eq
 800079a:	3c01      	subeq	r4, #1
 800079c:	d0f7      	beq.n	800078e <__aeabi_dmul+0x1a6>
 800079e:	ea41 0106 	orr.w	r1, r1, r6
 80007a2:	f095 0f00 	teq	r5, #0
 80007a6:	bf18      	it	ne
 80007a8:	4770      	bxne	lr
 80007aa:	f003 4600 	and.w	r6, r3, #2147483648	@ 0x80000000
 80007ae:	0052      	lsls	r2, r2, #1
 80007b0:	eb43 0303 	adc.w	r3, r3, r3
 80007b4:	f413 1f80 	tst.w	r3, #1048576	@ 0x100000
 80007b8:	bf08      	it	eq
 80007ba:	3d01      	subeq	r5, #1
 80007bc:	d0f7      	beq.n	80007ae <__aeabi_dmul+0x1c6>
 80007be:	ea43 0306 	orr.w	r3, r3, r6
 80007c2:	4770      	bx	lr
 80007c4:	ea94 0f0c 	teq	r4, ip
 80007c8:	ea0c 5513 	and.w	r5, ip, r3, lsr #20
 80007cc:	bf18      	it	ne
 80007ce:	ea95 0f0c 	teqne	r5, ip
 80007d2:	d00c      	beq.n	80007ee <__aeabi_dmul+0x206>
 80007d4:	ea50 0641 	orrs.w	r6, r0, r1, lsl #1
 80007d8:	bf18      	it	ne
 80007da:	ea52 0643 	orrsne.w	r6, r2, r3, lsl #1
 80007de:	d1d1      	bne.n	8000784 <__aeabi_dmul+0x19c>
 80007e0:	ea81 0103 	eor.w	r1, r1, r3
 80007e4:	f001 4100 	and.w	r1, r1, #2147483648	@ 0x80000000
 80007e8:	f04f 0000 	mov.w	r0, #0
 80007ec:	bd70      	pop	{r4, r5, r6, pc}
 80007ee:	ea50 0641 	orrs.w	r6, r0, r1, lsl #1
 80007f2:	bf06      	itte	eq
 80007f4:	4610      	moveq	r0, r2
 80007f6:	4619      	moveq	r1, r3
 80007f8:	ea52 0643 	orrsne.w	r6, r2, r3, lsl #1
 80007fc:	d019      	beq.n	8000832 <__aeabi_dmul+0x24a>
 80007fe:	ea94 0f0c 	teq	r4, ip
 8000802:	d102      	bne.n	800080a <__aeabi_dmul+0x222>
 8000804:	ea50 3601 	orrs.w	r6, r0, r1, lsl #12
 8000808:	d113      	bne.n	8000832 <__aeabi_dmul+0x24a>
 800080a:	ea95 0f0c 	teq	r5, ip
 800080e:	d105      	bne.n	800081c <__aeabi_dmul+0x234>
 8000810:	ea52 3603 	orrs.w	r6, r2, r3, lsl #12
 8000814:	bf1c      	itt	ne
 8000816:	4610      	movne	r0, r2
 8000818:	4619      	movne	r1, r3
 800081a:	d10a      	bne.n	8000832 <__aeabi_dmul+0x24a>
 800081c:	ea81 0103 	eor.w	r1, r1, r3
 8000820:	f001 4100 	and.w	r1, r1, #2147483648	@ 0x80000000
 8000824:	f041 41fe 	orr.w	r1, r1, #2130706432	@ 0x7f000000
 8000828:	f441 0170 	orr.w	r1, r1, #15728640	@ 0xf00000
 800082c:	f04f 0000 	mov.w	r0, #0
 8000830:	bd70      	pop	{r4, r5, r6, pc}
 8000832:	f041 41fe 	orr.w	r1, r1, #2130706432	@ 0x7f000000
 8000836:	f441 0178 	orr.w	r1, r1, #16252928	@ 0xf80000
 800083a:	bd70      	pop	{r4, r5, r6, pc}

0800083c <__aeabi_ddiv>:
 800083c:	b570      	push	{r4, r5, r6, lr}
 800083e:	f04f 0cff 	mov.w	ip, #255	@ 0xff
 8000842:	f44c 6ce0 	orr.w	ip, ip, #1792	@ 0x700
 8000846:	ea1c 5411 	ands.w	r4, ip, r1, lsr #20
 800084a:	bf1d      	ittte	ne
 800084c:	ea1c 5513 	andsne.w	r5, ip, r3, lsr #20
 8000850:	ea94 0f0c 	teqne	r4, ip
 8000854:	ea95 0f0c 	teqne	r5, ip
 8000858:	f000 f8a7 	bleq	80009aa <__aeabi_ddiv+0x16e>
 800085c:	eba4 0405 	sub.w	r4, r4, r5
 8000860:	ea81 0e03 	eor.w	lr, r1, r3
 8000864:	ea52 3503 	orrs.w	r5, r2, r3, lsl #12
 8000868:	ea4f 3101 	mov.w	r1, r1, lsl #12
 800086c:	f000 8088 	beq.w	8000980 <__aeabi_ddiv+0x144>
 8000870:	ea4f 3303 	mov.w	r3, r3, lsl #12
 8000874:	f04f 5580 	mov.w	r5, #268435456	@ 0x10000000
 8000878:	ea45 1313 	orr.w	r3, r5, r3, lsr #4
 800087c:	ea43 6312 	orr.w	r3, r3, r2, lsr #24
 8000880:	ea4f 2202 	mov.w	r2, r2, lsl #8
 8000884:	ea45 1511 	orr.w	r5, r5, r1, lsr #4
 8000888:	ea45 6510 	orr.w	r5, r5, r0, lsr #24
 800088c:	ea4f 2600 	mov.w	r6, r0, lsl #8
 8000890:	f00e 4100 	and.w	r1, lr, #2147483648	@ 0x80000000
 8000894:	429d      	cmp	r5, r3
 8000896:	bf08      	it	eq
 8000898:	4296      	cmpeq	r6, r2
 800089a:	f144 04fd 	adc.w	r4, r4, #253	@ 0xfd
 800089e:	f504 7440 	add.w	r4, r4, #768	@ 0x300
 80008a2:	d202      	bcs.n	80008aa <__aeabi_ddiv+0x6e>
 80008a4:	085b      	lsrs	r3, r3, #1
 80008a6:	ea4f 0232 	mov.w	r2, r2, rrx
 80008aa:	1ab6      	subs	r6, r6, r2
 80008ac:	eb65 0503 	sbc.w	r5, r5, r3
 80008b0:	085b      	lsrs	r3, r3, #1
 80008b2:	ea4f 0232 	mov.w	r2, r2, rrx
 80008b6:	f44f 1080 	mov.w	r0, #1048576	@ 0x100000
 80008ba:	f44f 2c00 	mov.w	ip, #524288	@ 0x80000
 80008be:	ebb6 0e02 	subs.w	lr, r6, r2
 80008c2:	eb75 0e03 	sbcs.w	lr, r5, r3
 80008c6:	bf22      	ittt	cs
 80008c8:	1ab6      	subcs	r6, r6, r2
 80008ca:	4675      	movcs	r5, lr
 80008cc:	ea40 000c 	orrcs.w	r0, r0, ip
 80008d0:	085b      	lsrs	r3, r3, #1
 80008d2:	ea4f 0232 	mov.w	r2, r2, rrx
 80008d6:	ebb6 0e02 	subs.w	lr, r6, r2
 80008da:	eb75 0e03 	sbcs.w	lr, r5, r3
 80008de:	bf22      	ittt	cs
 80008e0:	1ab6      	subcs	r6, r6, r2
 80008e2:	4675      	movcs	r5, lr
 80008e4:	ea40 005c 	orrcs.w	r0, r0, ip, lsr #1
 80008e8:	085b      	lsrs	r3, r3, #1
 80008ea:	ea4f 0232 	mov.w	r2, r2, rrx
 80008ee:	ebb6 0e02 	subs.w	lr, r6, r2
 80008f2:	eb75 0e03 	sbcs.w	lr, r5, r3
 80008f6:	bf22      	ittt	cs
 80008f8:	1ab6      	subcs	r6, r6, r2
 80008fa:	4675      	movcs	r5, lr
 80008fc:	ea40 009c 	orrcs.w	r0, r0, ip, lsr #2
 8000900:	085b      	lsrs	r3, r3, #1
 8000902:	ea4f 0232 	mov.w	r2, r2, rrx
 8000906:	ebb6 0e02 	subs.w	lr, r6, r2
 800090a:	eb75 0e03 	sbcs.w	lr, r5, r3
 800090e:	bf22      	ittt	cs
 8000910:	1ab6      	subcs	r6, r6, r2
 8000912:	4675      	movcs	r5, lr
 8000914:	ea40 00dc 	orrcs.w	r0, r0, ip, lsr #3
 8000918:	ea55 0e06 	orrs.w	lr, r5, r6
 800091c:	d018      	beq.n	8000950 <__aeabi_ddiv+0x114>
 800091e:	ea4f 1505 	mov.w	r5, r5, lsl #4
 8000922:	ea45 7516 	orr.w	r5, r5, r6, lsr #28
 8000926:	ea4f 1606 	mov.w	r6, r6, lsl #4
 800092a:	ea4f 03c3 	mov.w	r3, r3, lsl #3
 800092e:	ea43 7352 	orr.w	r3, r3, r2, lsr #29
 8000932:	ea4f 02c2 	mov.w	r2, r2, lsl #3
 8000936:	ea5f 1c1c 	movs.w	ip, ip, lsr #4
 800093a:	d1c0      	bne.n	80008be <__aeabi_ddiv+0x82>
 800093c:	f411 1f80 	tst.w	r1, #1048576	@ 0x100000
 8000940:	d10b      	bne.n	800095a <__aeabi_ddiv+0x11e>
 8000942:	ea41 0100 	orr.w	r1, r1, r0
 8000946:	f04f 0000 	mov.w	r0, #0
 800094a:	f04f 4c00 	mov.w	ip, #2147483648	@ 0x80000000
 800094e:	e7b6      	b.n	80008be <__aeabi_ddiv+0x82>
 8000950:	f411 1f80 	tst.w	r1, #1048576	@ 0x100000
 8000954:	bf04      	itt	eq
 8000956:	4301      	orreq	r1, r0
 8000958:	2000      	moveq	r0, #0
 800095a:	f1b4 0cfd 	subs.w	ip, r4, #253	@ 0xfd
 800095e:	bf88      	it	hi
 8000960:	f5bc 6fe0 	cmphi.w	ip, #1792	@ 0x700
 8000964:	f63f aeaf 	bhi.w	80006c6 <__aeabi_dmul+0xde>
 8000968:	ebb5 0c03 	subs.w	ip, r5, r3
 800096c:	bf04      	itt	eq
 800096e:	ebb6 0c02 	subseq.w	ip, r6, r2
 8000972:	ea5f 0c50 	movseq.w	ip, r0, lsr #1
 8000976:	f150 0000 	adcs.w	r0, r0, #0
 800097a:	eb41 5104 	adc.w	r1, r1, r4, lsl #20
 800097e:	bd70      	pop	{r4, r5, r6, pc}
 8000980:	f00e 4e00 	and.w	lr, lr, #2147483648	@ 0x80000000
 8000984:	ea4e 3111 	orr.w	r1, lr, r1, lsr #12
 8000988:	eb14 045c 	adds.w	r4, r4, ip, lsr #1
 800098c:	bfc2      	ittt	gt
 800098e:	ebd4 050c 	rsbsgt	r5, r4, ip
 8000992:	ea41 5104 	orrgt.w	r1, r1, r4, lsl #20
 8000996:	bd70      	popgt	{r4, r5, r6, pc}
 8000998:	f441 1180 	orr.w	r1, r1, #1048576	@ 0x100000
 800099c:	f04f 0e00 	mov.w	lr, #0
 80009a0:	3c01      	subs	r4, #1
 80009a2:	e690      	b.n	80006c6 <__aeabi_dmul+0xde>
 80009a4:	ea45 0e06 	orr.w	lr, r5, r6
 80009a8:	e68d      	b.n	80006c6 <__aeabi_dmul+0xde>
 80009aa:	ea0c 5513 	and.w	r5, ip, r3, lsr #20
 80009ae:	ea94 0f0c 	teq	r4, ip
 80009b2:	bf08      	it	eq
 80009b4:	ea95 0f0c 	teqeq	r5, ip
 80009b8:	f43f af3b 	beq.w	8000832 <__aeabi_dmul+0x24a>
 80009bc:	ea94 0f0c 	teq	r4, ip
 80009c0:	d10a      	bne.n	80009d8 <__aeabi_ddiv+0x19c>
 80009c2:	ea50 3401 	orrs.w	r4, r0, r1, lsl #12
 80009c6:	f47f af34 	bne.w	8000832 <__aeabi_dmul+0x24a>
 80009ca:	ea95 0f0c 	teq	r5, ip
 80009ce:	f47f af25 	bne.w	800081c <__aeabi_dmul+0x234>
 80009d2:	4610      	mov	r0, r2
 80009d4:	4619      	mov	r1, r3
 80009d6:	e72c      	b.n	8000832 <__aeabi_dmul+0x24a>
 80009d8:	ea95 0f0c 	teq	r5, ip
 80009dc:	d106      	bne.n	80009ec <__aeabi_ddiv+0x1b0>
 80009de:	ea52 3503 	orrs.w	r5, r2, r3, lsl #12
 80009e2:	f43f aefd 	beq.w	80007e0 <__aeabi_dmul+0x1f8>
 80009e6:	4610      	mov	r0, r2
 80009e8:	4619      	mov	r1, r3
 80009ea:	e722      	b.n	8000832 <__aeabi_dmul+0x24a>
 80009ec:	ea50 0641 	orrs.w	r6, r0, r1, lsl #1
 80009f0:	bf18      	it	ne
 80009f2:	ea52 0643 	orrsne.w	r6, r2, r3, lsl #1
 80009f6:	f47f aec5 	bne.w	8000784 <__aeabi_dmul+0x19c>
 80009fa:	ea50 0441 	orrs.w	r4, r0, r1, lsl #1
 80009fe:	f47f af0d 	bne.w	800081c <__aeabi_dmul+0x234>
 8000a02:	ea52 0543 	orrs.w	r5, r2, r3, lsl #1
 8000a06:	f47f aeeb 	bne.w	80007e0 <__aeabi_dmul+0x1f8>
 8000a0a:	e712      	b.n	8000832 <__aeabi_dmul+0x24a>

08000a0c <__gedf2>:
 8000a0c:	f04f 3cff 	mov.w	ip, #4294967295
 8000a10:	e006      	b.n	8000a20 <__cmpdf2+0x4>
 8000a12:	bf00      	nop

08000a14 <__ledf2>:
 8000a14:	f04f 0c01 	mov.w	ip, #1
 8000a18:	e002      	b.n	8000a20 <__cmpdf2+0x4>
 8000a1a:	bf00      	nop

08000a1c <__cmpdf2>:
 8000a1c:	f04f 0c01 	mov.w	ip, #1
 8000a20:	f84d cd04 	str.w	ip, [sp, #-4]!
 8000a24:	ea4f 0c41 	mov.w	ip, r1, lsl #1
 8000a28:	ea7f 5c6c 	mvns.w	ip, ip, asr #21
 8000a2c:	ea4f 0c43 	mov.w	ip, r3, lsl #1
 8000a30:	bf18      	it	ne
 8000a32:	ea7f 5c6c 	mvnsne.w	ip, ip, asr #21
 8000a36:	d01b      	beq.n	8000a70 <__cmpdf2+0x54>
 8000a38:	b001      	add	sp, #4
 8000a3a:	ea50 0c41 	orrs.w	ip, r0, r1, lsl #1
 8000a3e:	bf0c      	ite	eq
 8000a40:	ea52 0c43 	orrseq.w	ip, r2, r3, lsl #1
 8000a44:	ea91 0f03 	teqne	r1, r3
 8000a48:	bf02      	ittt	eq
 8000a4a:	ea90 0f02 	teqeq	r0, r2
 8000a4e:	2000      	moveq	r0, #0
 8000a50:	4770      	bxeq	lr
 8000a52:	f110 0f00 	cmn.w	r0, #0
 8000a56:	ea91 0f03 	teq	r1, r3
 8000a5a:	bf58      	it	pl
 8000a5c:	4299      	cmppl	r1, r3
 8000a5e:	bf08      	it	eq
 8000a60:	4290      	cmpeq	r0, r2
 8000a62:	bf2c      	ite	cs
 8000a64:	17d8      	asrcs	r0, r3, #31
 8000a66:	ea6f 70e3 	mvncc.w	r0, r3, asr #31
 8000a6a:	f040 0001 	orr.w	r0, r0, #1
 8000a6e:	4770      	bx	lr
 8000a70:	ea4f 0c41 	mov.w	ip, r1, lsl #1
 8000a74:	ea7f 5c6c 	mvns.w	ip, ip, asr #21
 8000a78:	d102      	bne.n	8000a80 <__cmpdf2+0x64>
 8000a7a:	ea50 3c01 	orrs.w	ip, r0, r1, lsl #12
 8000a7e:	d107      	bne.n	8000a90 <__cmpdf2+0x74>
 8000a80:	ea4f 0c43 	mov.w	ip, r3, lsl #1
 8000a84:	ea7f 5c6c 	mvns.w	ip, ip, asr #21
 8000a88:	d1d6      	bne.n	8000a38 <__cmpdf2+0x1c>
 8000a8a:	ea52 3c03 	orrs.w	ip, r2, r3, lsl #12
 8000a8e:	d0d3      	beq.n	8000a38 <__cmpdf2+0x1c>
 8000a90:	f85d 0b04 	ldr.w	r0, [sp], #4
 8000a94:	4770      	bx	lr
 8000a96:	bf00      	nop

08000a98 <__aeabi_cdrcmple>:
 8000a98:	4684      	mov	ip, r0
 8000a9a:	4610      	mov	r0, r2
 8000a9c:	4662      	mov	r2, ip
 8000a9e:	468c      	mov	ip, r1
 8000aa0:	4619      	mov	r1, r3
 8000aa2:	4663      	mov	r3, ip
 8000aa4:	e000      	b.n	8000aa8 <__aeabi_cdcmpeq>
 8000aa6:	bf00      	nop

08000aa8 <__aeabi_cdcmpeq>:
 8000aa8:	b501      	push	{r0, lr}
 8000aaa:	f7ff ffb7 	bl	8000a1c <__cmpdf2>
 8000aae:	2800      	cmp	r0, #0
 8000ab0:	bf48      	it	mi
 8000ab2:	f110 0f00 	cmnmi.w	r0, #0
 8000ab6:	bd01      	pop	{r0, pc}

08000ab8 <__aeabi_dcmpeq>:
 8000ab8:	f84d ed08 	str.w	lr, [sp, #-8]!
 8000abc:	f7ff fff4 	bl	8000aa8 <__aeabi_cdcmpeq>
 8000ac0:	bf0c      	ite	eq
 8000ac2:	2001      	moveq	r0, #1
 8000ac4:	2000      	movne	r0, #0
 8000ac6:	f85d fb08 	ldr.w	pc, [sp], #8
 8000aca:	bf00      	nop

08000acc <__aeabi_dcmplt>:
 8000acc:	f84d ed08 	str.w	lr, [sp, #-8]!
 8000ad0:	f7ff ffea 	bl	8000aa8 <__aeabi_cdcmpeq>
 8000ad4:	bf34      	ite	cc
 8000ad6:	2001      	movcc	r0, #1
 8000ad8:	2000      	movcs	r0, #0
 8000ada:	f85d fb08 	ldr.w	pc, [sp], #8
 8000ade:	bf00      	nop

08000ae0 <__aeabi_dcmple>:
 8000ae0:	f84d ed08 	str.w	lr, [sp, #-8]!
 8000ae4:	f7ff ffe0 	bl	8000aa8 <__aeabi_cdcmpeq>
 8000ae8:	bf94      	ite	ls
 8000aea:	2001      	movls	r0, #1
 8000aec:	2000      	movhi	r0, #0
 8000aee:	f85d fb08 	ldr.w	pc, [sp], #8
 8000af2:	bf00      	nop

08000af4 <__aeabi_dcmpge>:
 8000af4:	f84d ed08 	str.w	lr, [sp, #-8]!
 8000af8:	f7ff ffce 	bl	8000a98 <__aeabi_cdrcmple>
 8000afc:	bf94      	ite	ls
 8000afe:	2001      	movls	r0, #1
 8000b00:	2000      	movhi	r0, #0
 8000b02:	f85d fb08 	ldr.w	pc, [sp], #8
 8000b06:	bf00      	nop

08000b08 <__aeabi_dcmpgt>:
 8000b08:	f84d ed08 	str.w	lr, [sp, #-8]!
 8000b0c:	f7ff ffc4 	bl	8000a98 <__aeabi_cdrcmple>
 8000b10:	bf34      	ite	cc
 8000b12:	2001      	movcc	r0, #1
 8000b14:	2000      	movcs	r0, #0
 8000b16:	f85d fb08 	ldr.w	pc, [sp], #8
 8000b1a:	bf00      	nop

08000b1c <__aeabi_d2iz>:
 8000b1c:	ea4f 0241 	mov.w	r2, r1, lsl #1
 8000b20:	f512 1200 	adds.w	r2, r2, #2097152	@ 0x200000
 8000b24:	d215      	bcs.n	8000b52 <__aeabi_d2iz+0x36>
 8000b26:	d511      	bpl.n	8000b4c <__aeabi_d2iz+0x30>
 8000b28:	f46f 7378 	mvn.w	r3, #992	@ 0x3e0
 8000b2c:	ebb3 5262 	subs.w	r2, r3, r2, asr #21
 8000b30:	d912      	bls.n	8000b58 <__aeabi_d2iz+0x3c>
 8000b32:	ea4f 23c1 	mov.w	r3, r1, lsl #11
 8000b36:	f043 4300 	orr.w	r3, r3, #2147483648	@ 0x80000000
 8000b3a:	ea43 5350 	orr.w	r3, r3, r0, lsr #21
 8000b3e:	f011 4f00 	tst.w	r1, #2147483648	@ 0x80000000
 8000b42:	fa23 f002 	lsr.w	r0, r3, r2
 8000b46:	bf18      	it	ne
 8000b48:	4240      	negne	r0, r0
 8000b4a:	4770      	bx	lr
 8000b4c:	f04f 0000 	mov.w	r0, #0
 8000b50:	4770      	bx	lr
 8000b52:	ea50 3001 	orrs.w	r0, r0, r1, lsl #12
 8000b56:	d105      	bne.n	8000b64 <__aeabi_d2iz+0x48>
 8000b58:	f011 4000 	ands.w	r0, r1, #2147483648	@ 0x80000000
 8000b5c:	bf08      	it	eq
 8000b5e:	f06f 4000 	mvneq.w	r0, #2147483648	@ 0x80000000
 8000b62:	4770      	bx	lr
 8000b64:	f04f 0000 	mov.w	r0, #0
 8000b68:	4770      	bx	lr
 8000b6a:	bf00      	nop

08000b6c <__aeabi_d2uiz>:
 8000b6c:	004a      	lsls	r2, r1, #1
 8000b6e:	d211      	bcs.n	8000b94 <__aeabi_d2uiz+0x28>
 8000b70:	f512 1200 	adds.w	r2, r2, #2097152	@ 0x200000
 8000b74:	d211      	bcs.n	8000b9a <__aeabi_d2uiz+0x2e>
 8000b76:	d50d      	bpl.n	8000b94 <__aeabi_d2uiz+0x28>
 8000b78:	f46f 7378 	mvn.w	r3, #992	@ 0x3e0
 8000b7c:	ebb3 5262 	subs.w	r2, r3, r2, asr #21
 8000b80:	d40e      	bmi.n	8000ba0 <__aeabi_d2uiz+0x34>
 8000b82:	ea4f 23c1 	mov.w	r3, r1, lsl #11
 8000b86:	f043 4300 	orr.w	r3, r3, #2147483648	@ 0x80000000
 8000b8a:	ea43 5350 	orr.w	r3, r3, r0, lsr #21
 8000b8e:	fa23 f002 	lsr.w	r0, r3, r2
 8000b92:	4770      	bx	lr
 8000b94:	f04f 0000 	mov.w	r0, #0
 8000b98:	4770      	bx	lr
 8000b9a:	ea50 3001 	orrs.w	r0, r0, r1, lsl #12
 8000b9e:	d102      	bne.n	8000ba6 <__aeabi_d2uiz+0x3a>
 8000ba0:	f04f 30ff 	mov.w	r0, #4294967295
 8000ba4:	4770      	bx	lr
 8000ba6:	f04f 0000 	mov.w	r0, #0
 8000baa:	4770      	bx	lr

08000bac <__aeabi_d2f>:
 8000bac:	ea4f 0241 	mov.w	r2, r1, lsl #1
 8000bb0:	f1b2 43e0 	subs.w	r3, r2, #1879048192	@ 0x70000000
 8000bb4:	bf24      	itt	cs
 8000bb6:	f5b3 1c00 	subscs.w	ip, r3, #2097152	@ 0x200000
 8000bba:	f1dc 5cfe 	rsbscs	ip, ip, #532676608	@ 0x1fc00000
 8000bbe:	d90d      	bls.n	8000bdc <__aeabi_d2f+0x30>
 8000bc0:	f001 4c00 	and.w	ip, r1, #2147483648	@ 0x80000000
 8000bc4:	ea4f 02c0 	mov.w	r2, r0, lsl #3
 8000bc8:	ea4c 7050 	orr.w	r0, ip, r0, lsr #29
 8000bcc:	f1b2 4f00 	cmp.w	r2, #2147483648	@ 0x80000000
 8000bd0:	eb40 0083 	adc.w	r0, r0, r3, lsl #2
 8000bd4:	bf08      	it	eq
 8000bd6:	f020 0001 	biceq.w	r0, r0, #1
 8000bda:	4770      	bx	lr
 8000bdc:	f011 4f80 	tst.w	r1, #1073741824	@ 0x40000000
 8000be0:	d121      	bne.n	8000c26 <__aeabi_d2f+0x7a>
 8000be2:	f113 7238 	adds.w	r2, r3, #48234496	@ 0x2e00000
 8000be6:	bfbc      	itt	lt
 8000be8:	f001 4000 	andlt.w	r0, r1, #2147483648	@ 0x80000000
 8000bec:	4770      	bxlt	lr
 8000bee:	f441 1180 	orr.w	r1, r1, #1048576	@ 0x100000
 8000bf2:	ea4f 5252 	mov.w	r2, r2, lsr #21
 8000bf6:	f1c2 0218 	rsb	r2, r2, #24
 8000bfa:	f1c2 0c20 	rsb	ip, r2, #32
 8000bfe:	fa10 f30c 	lsls.w	r3, r0, ip
 8000c02:	fa20 f002 	lsr.w	r0, r0, r2
 8000c06:	bf18      	it	ne
 8000c08:	f040 0001 	orrne.w	r0, r0, #1
 8000c0c:	ea4f 23c1 	mov.w	r3, r1, lsl #11
 8000c10:	ea4f 23d3 	mov.w	r3, r3, lsr #11
 8000c14:	fa03 fc0c 	lsl.w	ip, r3, ip
 8000c18:	ea40 000c 	orr.w	r0, r0, ip
 8000c1c:	fa23 f302 	lsr.w	r3, r3, r2
 8000c20:	ea4f 0343 	mov.w	r3, r3, lsl #1
 8000c24:	e7cc      	b.n	8000bc0 <__aeabi_d2f+0x14>
 8000c26:	ea7f 5362 	mvns.w	r3, r2, asr #21
 8000c2a:	d107      	bne.n	8000c3c <__aeabi_d2f+0x90>
 8000c2c:	ea50 3301 	orrs.w	r3, r0, r1, lsl #12
 8000c30:	bf1e      	ittt	ne
 8000c32:	f04f 40fe 	movne.w	r0, #2130706432	@ 0x7f000000
 8000c36:	f440 0040 	orrne.w	r0, r0, #12582912	@ 0xc00000
 8000c3a:	4770      	bxne	lr
 8000c3c:	f001 4000 	and.w	r0, r1, #2147483648	@ 0x80000000
 8000c40:	f040 40fe 	orr.w	r0, r0, #2130706432	@ 0x7f000000
 8000c44:	f440 0000 	orr.w	r0, r0, #8388608	@ 0x800000
 8000c48:	4770      	bx	lr
 8000c4a:	bf00      	nop

08000c4c <HAL_DAC_ConvCpltCallbackCh1>:
 8000c4c:	b537      	push	{r0, r1, r2, r4, r5, lr}
 8000c4e:	4b2c      	ldr	r3, [pc, #176]	@ (8000d00 <HAL_DAC_ConvCpltCallbackCh1+0xb4>)
 8000c50:	781c      	ldrb	r4, [r3, #0]
 8000c52:	b1ec      	cbz	r4, 8000c90 <HAL_DAC_ConvCpltCallbackCh1+0x44>
 8000c54:	2400      	movs	r4, #0
 8000c56:	701c      	strb	r4, [r3, #0]
 8000c58:	4b2a      	ldr	r3, [pc, #168]	@ (8000d04 <HAL_DAC_ConvCpltCallbackCh1+0xb8>)
 8000c5a:	482b      	ldr	r0, [pc, #172]	@ (8000d08 <HAL_DAC_ConvCpltCallbackCh1+0xbc>)
 8000c5c:	701c      	strb	r4, [r3, #0]
 8000c5e:	f001 fd21 	bl	80026a4 <HAL_TIM_Base_Stop>
 8000c62:	482a      	ldr	r0, [pc, #168]	@ (8000d0c <HAL_DAC_ConvCpltCallbackCh1+0xc0>)
 8000c64:	4621      	mov	r1, r4
 8000c66:	f000 fe17 	bl	8001898 <HAL_DAC_Stop_DMA>
 8000c6a:	4b29      	ldr	r3, [pc, #164]	@ (8000d10 <HAL_DAC_ConvCpltCallbackCh1+0xc4>)
 8000c6c:	6b19      	ldr	r1, [r3, #48]	@ 0x30
 8000c6e:	f011 0101 	ands.w	r1, r1, #1
 8000c72:	d1fb      	bne.n	8000c6c <HAL_DAC_ConvCpltCallbackCh1+0x20>
 8000c74:	4a27      	ldr	r2, [pc, #156]	@ (8000d14 <HAL_DAC_ConvCpltCallbackCh1+0xc8>)
 8000c76:	9100      	str	r1, [sp, #0]
 8000c78:	2314      	movs	r3, #20
 8000c7a:	4824      	ldr	r0, [pc, #144]	@ (8000d0c <HAL_DAC_ConvCpltCallbackCh1+0xc0>)
 8000c7c:	f000 fda0 	bl	80017c0 <HAL_DAC_Start_DMA>
 8000c80:	4821      	ldr	r0, [pc, #132]	@ (8000d08 <HAL_DAC_ConvCpltCallbackCh1+0xbc>)
 8000c82:	f001 fcd9 	bl	8002638 <HAL_TIM_Base_Start>
 8000c86:	4b24      	ldr	r3, [pc, #144]	@ (8000d18 <HAL_DAC_ConvCpltCallbackCh1+0xcc>)
 8000c88:	2201      	movs	r2, #1
 8000c8a:	701a      	strb	r2, [r3, #0]
 8000c8c:	b003      	add	sp, #12
 8000c8e:	bd30      	pop	{r4, r5, pc}
 8000c90:	4a21      	ldr	r2, [pc, #132]	@ (8000d18 <HAL_DAC_ConvCpltCallbackCh1+0xcc>)
 8000c92:	7813      	ldrb	r3, [r2, #0]
 8000c94:	2b00      	cmp	r3, #0
 8000c96:	d0f9      	beq.n	8000c8c <HAL_DAC_ConvCpltCallbackCh1+0x40>
 8000c98:	491a      	ldr	r1, [pc, #104]	@ (8000d04 <HAL_DAC_ConvCpltCallbackCh1+0xb8>)
 8000c9a:	4d1d      	ldr	r5, [pc, #116]	@ (8000d10 <HAL_DAC_ConvCpltCallbackCh1+0xc4>)
 8000c9c:	780b      	ldrb	r3, [r1, #0]
 8000c9e:	3301      	adds	r3, #1
 8000ca0:	b2db      	uxtb	r3, r3
 8000ca2:	2b13      	cmp	r3, #19
 8000ca4:	700b      	strb	r3, [r1, #0]
 8000ca6:	d816      	bhi.n	8000cd6 <HAL_DAC_ConvCpltCallbackCh1+0x8a>
 8000ca8:	4817      	ldr	r0, [pc, #92]	@ (8000d08 <HAL_DAC_ConvCpltCallbackCh1+0xbc>)
 8000caa:	f001 fcfb 	bl	80026a4 <HAL_TIM_Base_Stop>
 8000cae:	4817      	ldr	r0, [pc, #92]	@ (8000d0c <HAL_DAC_ConvCpltCallbackCh1+0xc0>)
 8000cb0:	4621      	mov	r1, r4
 8000cb2:	f000 fdf1 	bl	8001898 <HAL_DAC_Stop_DMA>
 8000cb6:	6b29      	ldr	r1, [r5, #48]	@ 0x30
 8000cb8:	f011 0101 	ands.w	r1, r1, #1
 8000cbc:	d1fb      	bne.n	8000cb6 <HAL_DAC_ConvCpltCallbackCh1+0x6a>
 8000cbe:	4a15      	ldr	r2, [pc, #84]	@ (8000d14 <HAL_DAC_ConvCpltCallbackCh1+0xc8>)
 8000cc0:	9100      	str	r1, [sp, #0]
 8000cc2:	2314      	movs	r3, #20
 8000cc4:	4811      	ldr	r0, [pc, #68]	@ (8000d0c <HAL_DAC_ConvCpltCallbackCh1+0xc0>)
 8000cc6:	f000 fd7b 	bl	80017c0 <HAL_DAC_Start_DMA>
 8000cca:	480f      	ldr	r0, [pc, #60]	@ (8000d08 <HAL_DAC_ConvCpltCallbackCh1+0xbc>)
 8000ccc:	b003      	add	sp, #12
 8000cce:	e8bd 4030 	ldmia.w	sp!, {r4, r5, lr}
 8000cd2:	f001 bcb1 	b.w	8002638 <HAL_TIM_Base_Start>
 8000cd6:	480c      	ldr	r0, [pc, #48]	@ (8000d08 <HAL_DAC_ConvCpltCallbackCh1+0xbc>)
 8000cd8:	7014      	strb	r4, [r2, #0]
 8000cda:	f001 fce3 	bl	80026a4 <HAL_TIM_Base_Stop>
 8000cde:	480b      	ldr	r0, [pc, #44]	@ (8000d0c <HAL_DAC_ConvCpltCallbackCh1+0xc0>)
 8000ce0:	4621      	mov	r1, r4
 8000ce2:	f000 fdd9 	bl	8001898 <HAL_DAC_Stop_DMA>
 8000ce6:	6b29      	ldr	r1, [r5, #48]	@ 0x30
 8000ce8:	f011 0101 	ands.w	r1, r1, #1
 8000cec:	d1fb      	bne.n	8000ce6 <HAL_DAC_ConvCpltCallbackCh1+0x9a>
 8000cee:	4b0b      	ldr	r3, [pc, #44]	@ (8000d1c <HAL_DAC_ConvCpltCallbackCh1+0xd0>)
 8000cf0:	4a0b      	ldr	r2, [pc, #44]	@ (8000d20 <HAL_DAC_ConvCpltCallbackCh1+0xd4>)
 8000cf2:	7818      	ldrb	r0, [r3, #0]
 8000cf4:	9100      	str	r1, [sp, #0]
 8000cf6:	f852 2020 	ldr.w	r2, [r2, r0, lsl #2]
 8000cfa:	2314      	movs	r3, #20
 8000cfc:	e7e2      	b.n	8000cc4 <HAL_DAC_ConvCpltCallbackCh1+0x78>
 8000cfe:	bf00      	nop
 8000d00:	200002da 	.word	0x200002da
 8000d04:	200002dc 	.word	0x200002dc
 8000d08:	20000420 	.word	0x20000420
 8000d0c:	200004b4 	.word	0x200004b4
 8000d10:	40020000 	.word	0x40020000
 8000d14:	200002de 	.word	0x200002de
 8000d18:	200002dd 	.word	0x200002dd
 8000d1c:	200002d9 	.word	0x200002d9
 8000d20:	20000004 	.word	0x20000004
 8000d24:	00000000 	.word	0x00000000

08000d28 <Generate_Waveforms>:
 8000d28:	e92d 4ff8 	stmdb	sp!, {r3, r4, r5, r6, r7, r8, r9, sl, fp, lr}
 8000d2c:	f8df b3ac 	ldr.w	fp, [pc, #940]	@ 80010dc <Generate_Waveforms+0x3b4>
 8000d30:	f8df a3ac 	ldr.w	sl, [pc, #940]	@ 80010e0 <Generate_Waveforms+0x3b8>
 8000d34:	4de2      	ldr	r5, [pc, #904]	@ (80010c0 <Generate_Waveforms+0x398>)
 8000d36:	4fe3      	ldr	r7, [pc, #908]	@ (80010c4 <Generate_Waveforms+0x39c>)
 8000d38:	f20f 394c 	addw	r9, pc, #844	@ 0x34c
 8000d3c:	e9d9 8900 	ldrd	r8, r9, [r9]
 8000d40:	ed2d 8b04 	vpush	{d8-d9}
 8000d44:	ed9b 8a00 	vldr	s16, [fp]
 8000d48:	2400      	movs	r4, #0
 8000d4a:	2600      	movs	r6, #0
 8000d4c:	4620      	mov	r0, r4
 8000d4e:	f7ff fbe1 	bl	8000514 <__aeabi_i2d>
 8000d52:	4642      	mov	r2, r8
 8000d54:	464b      	mov	r3, r9
 8000d56:	f7ff fc47 	bl	80005e8 <__aeabi_dmul>
 8000d5a:	4632      	mov	r2, r6
 8000d5c:	463b      	mov	r3, r7
 8000d5e:	f7ff fd6d 	bl	800083c <__aeabi_ddiv>
 8000d62:	a3cb      	add	r3, pc, #812	@ (adr r3, 8001090 <Generate_Waveforms+0x368>)
 8000d64:	e9d3 2300 	ldrd	r2, r3, [r3]
 8000d68:	f7ff fa88 	bl	800027c <__adddf3>
 8000d6c:	f7ff ff1e 	bl	8000bac <__aeabi_d2f>
 8000d70:	ee07 0a90 	vmov	s15, r0
 8000d74:	ee67 7a88 	vmul.f32	s15, s15, s16
 8000d78:	f84a 0b04 	str.w	r0, [sl], #4
 8000d7c:	ee17 0a90 	vmov	r0, s15
 8000d80:	f7ff fbda 	bl	8000538 <__aeabi_f2d>
 8000d84:	a3c4      	add	r3, pc, #784	@ (adr r3, 8001098 <Generate_Waveforms+0x370>)
 8000d86:	e9d3 2300 	ldrd	r2, r3, [r3]
 8000d8a:	f7ff fd57 	bl	800083c <__aeabi_ddiv>
 8000d8e:	f7ff feed 	bl	8000b6c <__aeabi_d2uiz>
 8000d92:	3401      	adds	r4, #1
 8000d94:	2c14      	cmp	r4, #20
 8000d96:	f825 0b02 	strh.w	r0, [r5], #2
 8000d9a:	d1d7      	bne.n	8000d4c <Generate_Waveforms+0x24>
 8000d9c:	a7be      	add	r7, pc, #760	@ (adr r7, 8001098 <Generate_Waveforms+0x370>)
 8000d9e:	e9d7 6700 	ldrd	r6, r7, [r7]
 8000da2:	f8df 8340 	ldr.w	r8, [pc, #832]	@ 80010e4 <Generate_Waveforms+0x3bc>
 8000da6:	4dc8      	ldr	r5, [pc, #800]	@ (80010c8 <Generate_Waveforms+0x3a0>)
 8000da8:	eddf 8ac8 	vldr	s17, [pc, #800]	@ 80010cc <Generate_Waveforms+0x3a4>
 8000dac:	2400      	movs	r4, #0
 8000dae:	eeb0 9a00 	vmov.f32	s18, #0	@ 0x40000000  2.0
 8000db2:	2c09      	cmp	r4, #9
 8000db4:	bfd4      	ite	le
 8000db6:	eef0 7a68 	vmovle.f32	s15, s17
 8000dba:	eef0 7a49 	vmovgt.f32	s15, s18
 8000dbe:	ece8 7a01 	vstmia	r8!, {s15}
 8000dc2:	ee68 7a27 	vmul.f32	s15, s16, s15
 8000dc6:	3401      	adds	r4, #1
 8000dc8:	ee17 0a90 	vmov	r0, s15
 8000dcc:	f7ff fbb4 	bl	8000538 <__aeabi_f2d>
 8000dd0:	4632      	mov	r2, r6
 8000dd2:	463b      	mov	r3, r7
 8000dd4:	f7ff fd32 	bl	800083c <__aeabi_ddiv>
 8000dd8:	f7ff fec8 	bl	8000b6c <__aeabi_d2uiz>
 8000ddc:	2c14      	cmp	r4, #20
 8000dde:	f825 0b02 	strh.w	r0, [r5], #2
 8000de2:	d1e6      	bne.n	8000db2 <Generate_Waveforms+0x8a>
 8000de4:	a7ae      	add	r7, pc, #696	@ (adr r7, 80010a0 <Generate_Waveforms+0x378>)
 8000de6:	e9d7 6700 	ldrd	r6, r7, [r7]
 8000dea:	f8df a2fc 	ldr.w	sl, [pc, #764]	@ 80010e8 <Generate_Waveforms+0x3c0>
 8000dee:	f8df 92fc 	ldr.w	r9, [pc, #764]	@ 80010ec <Generate_Waveforms+0x3c4>
 8000df2:	4db7      	ldr	r5, [pc, #732]	@ (80010d0 <Generate_Waveforms+0x3a8>)
 8000df4:	f04f 0800 	mov.w	r8, #0
 8000df8:	2400      	movs	r4, #0
 8000dfa:	4640      	mov	r0, r8
 8000dfc:	f7ff fb8a 	bl	8000514 <__aeabi_i2d>
 8000e00:	4632      	mov	r2, r6
 8000e02:	463b      	mov	r3, r7
 8000e04:	f7ff fbf0 	bl	80005e8 <__aeabi_dmul>
 8000e08:	4622      	mov	r2, r4
 8000e0a:	462b      	mov	r3, r5
 8000e0c:	f7ff fd16 	bl	800083c <__aeabi_ddiv>
 8000e10:	ec41 0b10 	vmov	d0, r0, r1
 8000e14:	f002 fda8 	bl	8003968 <sin>
 8000e18:	a3a3      	add	r3, pc, #652	@ (adr r3, 80010a8 <Generate_Waveforms+0x380>)
 8000e1a:	e9d3 2300 	ldrd	r2, r3, [r3]
 8000e1e:	ec51 0b10 	vmov	r0, r1, d0
 8000e22:	f7ff fbe1 	bl	80005e8 <__aeabi_dmul>
 8000e26:	a3a2      	add	r3, pc, #648	@ (adr r3, 80010b0 <Generate_Waveforms+0x388>)
 8000e28:	e9d3 2300 	ldrd	r2, r3, [r3]
 8000e2c:	f7ff fa26 	bl	800027c <__adddf3>
 8000e30:	f7ff febc 	bl	8000bac <__aeabi_d2f>
 8000e34:	ee07 0a90 	vmov	s15, r0
 8000e38:	ee68 7a27 	vmul.f32	s15, s16, s15
 8000e3c:	f84a 0b04 	str.w	r0, [sl], #4
 8000e40:	ee17 0a90 	vmov	r0, s15
 8000e44:	f7ff fb78 	bl	8000538 <__aeabi_f2d>
 8000e48:	a393      	add	r3, pc, #588	@ (adr r3, 8001098 <Generate_Waveforms+0x370>)
 8000e4a:	e9d3 2300 	ldrd	r2, r3, [r3]
 8000e4e:	f7ff fcf5 	bl	800083c <__aeabi_ddiv>
 8000e52:	f7ff fe8b 	bl	8000b6c <__aeabi_d2uiz>
 8000e56:	f108 0801 	add.w	r8, r8, #1
 8000e5a:	f1b8 0f14 	cmp.w	r8, #20
 8000e5e:	f829 0b02 	strh.w	r0, [r9], #2
 8000e62:	d1ca      	bne.n	8000dfa <Generate_Waveforms+0xd2>
 8000e64:	a588      	add	r5, pc, #544	@ (adr r5, 8001088 <Generate_Waveforms+0x360>)
 8000e66:	e9d5 4500 	ldrd	r4, r5, [r5]
 8000e6a:	f8df 9284 	ldr.w	r9, [pc, #644]	@ 80010f0 <Generate_Waveforms+0x3c8>
 8000e6e:	f8df a284 	ldr.w	sl, [pc, #644]	@ 80010f4 <Generate_Waveforms+0x3cc>
 8000e72:	eddf 8a96 	vldr	s17, [pc, #600]	@ 80010cc <Generate_Waveforms+0x3a4>
 8000e76:	4f97      	ldr	r7, [pc, #604]	@ (80010d4 <Generate_Waveforms+0x3ac>)
 8000e78:	f04f 0800 	mov.w	r8, #0
 8000e7c:	2600      	movs	r6, #0
 8000e7e:	f1b8 0f03 	cmp.w	r8, #3
 8000e82:	f300 80e4 	bgt.w	800104e <Generate_Waveforms+0x326>
 8000e86:	4640      	mov	r0, r8
 8000e88:	f7ff fb44 	bl	8000514 <__aeabi_i2d>
 8000e8c:	4622      	mov	r2, r4
 8000e8e:	462b      	mov	r3, r5
 8000e90:	f7ff fbaa 	bl	80005e8 <__aeabi_dmul>
 8000e94:	4632      	mov	r2, r6
 8000e96:	463b      	mov	r3, r7
 8000e98:	f7ff fba6 	bl	80005e8 <__aeabi_dmul>
 8000e9c:	a37c      	add	r3, pc, #496	@ (adr r3, 8001090 <Generate_Waveforms+0x368>)
 8000e9e:	e9d3 2300 	ldrd	r2, r3, [r3]
 8000ea2:	f7ff f9eb 	bl	800027c <__adddf3>
 8000ea6:	f7ff fe81 	bl	8000bac <__aeabi_d2f>
 8000eaa:	f8c9 0000 	str.w	r0, [r9]
 8000eae:	ecf9 7a01 	vldmia	r9!, {s15}
 8000eb2:	ee68 7a27 	vmul.f32	s15, s16, s15
 8000eb6:	f108 0801 	add.w	r8, r8, #1
 8000eba:	ee17 0a90 	vmov	r0, s15
 8000ebe:	f7ff fb3b 	bl	8000538 <__aeabi_f2d>
 8000ec2:	a375      	add	r3, pc, #468	@ (adr r3, 8001098 <Generate_Waveforms+0x370>)
 8000ec4:	e9d3 2300 	ldrd	r2, r3, [r3]
 8000ec8:	f7ff fcb8 	bl	800083c <__aeabi_ddiv>
 8000ecc:	f7ff fe4e 	bl	8000b6c <__aeabi_d2uiz>
 8000ed0:	f1b8 0f14 	cmp.w	r8, #20
 8000ed4:	f82a 0b02 	strh.w	r0, [sl], #2
 8000ed8:	d1d1      	bne.n	8000e7e <Generate_Waveforms+0x156>
 8000eda:	a777      	add	r7, pc, #476	@ (adr r7, 80010b8 <Generate_Waveforms+0x390>)
 8000edc:	e9d7 6700 	ldrd	r6, r7, [r7]
 8000ee0:	f8df a214 	ldr.w	sl, [pc, #532]	@ 80010f8 <Generate_Waveforms+0x3d0>
 8000ee4:	f8df 9214 	ldr.w	r9, [pc, #532]	@ 80010fc <Generate_Waveforms+0x3d4>
 8000ee8:	4d79      	ldr	r5, [pc, #484]	@ (80010d0 <Generate_Waveforms+0x3a8>)
 8000eea:	f04f 0800 	mov.w	r8, #0
 8000eee:	2400      	movs	r4, #0
 8000ef0:	4640      	mov	r0, r8
 8000ef2:	f7ff fb0f 	bl	8000514 <__aeabi_i2d>
 8000ef6:	4632      	mov	r2, r6
 8000ef8:	463b      	mov	r3, r7
 8000efa:	f7ff fb75 	bl	80005e8 <__aeabi_dmul>
 8000efe:	4622      	mov	r2, r4
 8000f00:	462b      	mov	r3, r5
 8000f02:	f7ff fc9b 	bl	800083c <__aeabi_ddiv>
 8000f06:	ec41 0b10 	vmov	d0, r0, r1
 8000f0a:	f002 fd2d 	bl	8003968 <sin>
 8000f0e:	a35e      	add	r3, pc, #376	@ (adr r3, 8001088 <Generate_Waveforms+0x360>)
 8000f10:	e9d3 2300 	ldrd	r2, r3, [r3]
 8000f14:	ec51 0b10 	vmov	r0, r1, d0
 8000f18:	f7ff fb66 	bl	80005e8 <__aeabi_dmul>
 8000f1c:	a35c      	add	r3, pc, #368	@ (adr r3, 8001090 <Generate_Waveforms+0x368>)
 8000f1e:	e9d3 2300 	ldrd	r2, r3, [r3]
 8000f22:	f7ff f9ab 	bl	800027c <__adddf3>
 8000f26:	f7ff fe41 	bl	8000bac <__aeabi_d2f>
 8000f2a:	ee07 0a90 	vmov	s15, r0
 8000f2e:	ee68 7a27 	vmul.f32	s15, s16, s15
 8000f32:	f84a 0b04 	str.w	r0, [sl], #4
 8000f36:	ee17 0a90 	vmov	r0, s15
 8000f3a:	f7ff fafd 	bl	8000538 <__aeabi_f2d>
 8000f3e:	a356      	add	r3, pc, #344	@ (adr r3, 8001098 <Generate_Waveforms+0x370>)
 8000f40:	e9d3 2300 	ldrd	r2, r3, [r3]
 8000f44:	f7ff fc7a 	bl	800083c <__aeabi_ddiv>
 8000f48:	f7ff fe10 	bl	8000b6c <__aeabi_d2uiz>
 8000f4c:	f108 0801 	add.w	r8, r8, #1
 8000f50:	f1b8 0f14 	cmp.w	r8, #20
 8000f54:	f829 0b02 	strh.w	r0, [r9], #2
 8000f58:	d1ca      	bne.n	8000ef0 <Generate_Waveforms+0x1c8>
 8000f5a:	a54b      	add	r5, pc, #300	@ (adr r5, 8001088 <Generate_Waveforms+0x360>)
 8000f5c:	e9d5 4500 	ldrd	r4, r5, [r5]
 8000f60:	f8df a19c 	ldr.w	sl, [pc, #412]	@ 8001100 <Generate_Waveforms+0x3d8>
 8000f64:	f8df 919c 	ldr.w	r9, [pc, #412]	@ 8001104 <Generate_Waveforms+0x3dc>
 8000f68:	4f59      	ldr	r7, [pc, #356]	@ (80010d0 <Generate_Waveforms+0x3a8>)
 8000f6a:	f04f 0800 	mov.w	r8, #0
 8000f6e:	2600      	movs	r6, #0
 8000f70:	f1b8 0f09 	cmp.w	r8, #9
 8000f74:	f300 80cd 	bgt.w	8001112 <Generate_Waveforms+0x3ea>
 8000f78:	4640      	mov	r0, r8
 8000f7a:	f7ff facb 	bl	8000514 <__aeabi_i2d>
 8000f7e:	4602      	mov	r2, r0
 8000f80:	460b      	mov	r3, r1
 8000f82:	f7ff f97b 	bl	800027c <__adddf3>
 8000f86:	4622      	mov	r2, r4
 8000f88:	462b      	mov	r3, r5
 8000f8a:	f7ff fb2d 	bl	80005e8 <__aeabi_dmul>
 8000f8e:	4632      	mov	r2, r6
 8000f90:	463b      	mov	r3, r7
 8000f92:	f7ff fc53 	bl	800083c <__aeabi_ddiv>
 8000f96:	a33e      	add	r3, pc, #248	@ (adr r3, 8001090 <Generate_Waveforms+0x368>)
 8000f98:	e9d3 2300 	ldrd	r2, r3, [r3]
 8000f9c:	f7ff f96e 	bl	800027c <__adddf3>
 8000fa0:	f7ff fe04 	bl	8000bac <__aeabi_d2f>
 8000fa4:	ee07 0a90 	vmov	s15, r0
 8000fa8:	ee68 7a27 	vmul.f32	s15, s16, s15
 8000fac:	f84a 0b04 	str.w	r0, [sl], #4
 8000fb0:	ee17 0a90 	vmov	r0, s15
 8000fb4:	f7ff fac0 	bl	8000538 <__aeabi_f2d>
 8000fb8:	a337      	add	r3, pc, #220	@ (adr r3, 8001098 <Generate_Waveforms+0x370>)
 8000fba:	e9d3 2300 	ldrd	r2, r3, [r3]
 8000fbe:	f7ff fc3d 	bl	800083c <__aeabi_ddiv>
 8000fc2:	f7ff fdd3 	bl	8000b6c <__aeabi_d2uiz>
 8000fc6:	f108 0801 	add.w	r8, r8, #1
 8000fca:	f1b8 0f14 	cmp.w	r8, #20
 8000fce:	f829 0b02 	strh.w	r0, [r9], #2
 8000fd2:	d1cd      	bne.n	8000f70 <Generate_Waveforms+0x248>
 8000fd4:	f20f 09b0 	addw	r9, pc, #176	@ 0xb0
 8000fd8:	e9d9 8900 	ldrd	r8, r9, [r9]
 8000fdc:	a72c      	add	r7, pc, #176	@ (adr r7, 8001090 <Generate_Waveforms+0x368>)
 8000fde:	e9d7 6700 	ldrd	r6, r7, [r7]
 8000fe2:	f8df a124 	ldr.w	sl, [pc, #292]	@ 8001108 <Generate_Waveforms+0x3e0>
 8000fe6:	4d3c      	ldr	r5, [pc, #240]	@ (80010d8 <Generate_Waveforms+0x3b0>)
 8000fe8:	2400      	movs	r4, #0
 8000fea:	f001 fce1 	bl	80029b0 <rand>
 8000fee:	ee07 0a90 	vmov	s15, r0
 8000ff2:	eeb0 7a67 	vmov.f32	s14, s15
 8000ff6:	eeba 7ae0 	vcvt.f32.s32	s14, s14, #31
 8000ffa:	3401      	adds	r4, #1
 8000ffc:	ee17 0a10 	vmov	r0, s14
 8001000:	f7ff fa9a 	bl	8000538 <__aeabi_f2d>
 8001004:	4642      	mov	r2, r8
 8001006:	464b      	mov	r3, r9
 8001008:	f7ff faee 	bl	80005e8 <__aeabi_dmul>
 800100c:	4632      	mov	r2, r6
 800100e:	463b      	mov	r3, r7
 8001010:	f7ff f934 	bl	800027c <__adddf3>
 8001014:	f7ff fdca 	bl	8000bac <__aeabi_d2f>
 8001018:	ed9b 7a00 	vldr	s14, [fp]
 800101c:	f84a 0b04 	str.w	r0, [sl], #4
 8001020:	ee07 0a90 	vmov	s15, r0
 8001024:	ee67 7a87 	vmul.f32	s15, s15, s14
 8001028:	ee17 0a90 	vmov	r0, s15
 800102c:	f7ff fa84 	bl	8000538 <__aeabi_f2d>
 8001030:	a319      	add	r3, pc, #100	@ (adr r3, 8001098 <Generate_Waveforms+0x370>)
 8001032:	e9d3 2300 	ldrd	r2, r3, [r3]
 8001036:	f7ff fc01 	bl	800083c <__aeabi_ddiv>
 800103a:	f7ff fd97 	bl	8000b6c <__aeabi_d2uiz>
 800103e:	2c14      	cmp	r4, #20
 8001040:	f825 0b02 	strh.w	r0, [r5], #2
 8001044:	d1d1      	bne.n	8000fea <Generate_Waveforms+0x2c2>
 8001046:	ecbd 8b04 	vpop	{d8-d9}
 800104a:	e8bd 8ff8 	ldmia.w	sp!, {r3, r4, r5, r6, r7, r8, r9, sl, fp, pc}
 800104e:	f1b8 0f09 	cmp.w	r8, #9
 8001052:	dd16      	ble.n	8001082 <Generate_Waveforms+0x35a>
 8001054:	f1b8 0f0d 	cmp.w	r8, #13
 8001058:	dc58      	bgt.n	800110c <Generate_Waveforms+0x3e4>
 800105a:	f1a8 000a 	sub.w	r0, r8, #10
 800105e:	f7ff fa59 	bl	8000514 <__aeabi_i2d>
 8001062:	4622      	mov	r2, r4
 8001064:	462b      	mov	r3, r5
 8001066:	f7ff fabf 	bl	80005e8 <__aeabi_dmul>
 800106a:	4632      	mov	r2, r6
 800106c:	463b      	mov	r3, r7
 800106e:	f7ff fabb 	bl	80005e8 <__aeabi_dmul>
 8001072:	4602      	mov	r2, r0
 8001074:	460b      	mov	r3, r1
 8001076:	2000      	movs	r0, #0
 8001078:	f04f 4180 	mov.w	r1, #1073741824	@ 0x40000000
 800107c:	f7ff f8fc 	bl	8000278 <__aeabi_dsub>
 8001080:	e711      	b.n	8000ea6 <Generate_Waveforms+0x17e>
 8001082:	f04f 4080 	mov.w	r0, #1073741824	@ 0x40000000
 8001086:	e710      	b.n	8000eaa <Generate_Waveforms+0x182>
 8001088:	66666666 	.word	0x66666666
 800108c:	3fe66666 	.word	0x3fe66666
 8001090:	cccccccd 	.word	0xcccccccd
 8001094:	3ff4cccc 	.word	0x3ff4cccc
 8001098:	66666666 	.word	0x66666666
 800109c:	400a6666 	.word	0x400a6666
 80010a0:	fc8b007a 	.word	0xfc8b007a
 80010a4:	401921fa 	.word	0x401921fa
 80010a8:	66666666 	.word	0x66666666
 80010ac:	3fd66666 	.word	0x3fd66666
 80010b0:	66666666 	.word	0x66666666
 80010b4:	3ffa6666 	.word	0x3ffa6666
 80010b8:	fc8b007a 	.word	0xfc8b007a
 80010bc:	400921fa 	.word	0x400921fa
 80010c0:	200003f6 	.word	0x200003f6
 80010c4:	40330000 	.word	0x40330000
 80010c8:	200003ce 	.word	0x200003ce
 80010cc:	3fa66666 	.word	0x3fa66666
 80010d0:	40340000 	.word	0x40340000
 80010d4:	3fd00000 	.word	0x3fd00000
 80010d8:	20000306 	.word	0x20000306
 80010dc:	20000020 	.word	0x20000020
 80010e0:	20000288 	.word	0x20000288
 80010e4:	20000238 	.word	0x20000238
 80010e8:	200001e8 	.word	0x200001e8
 80010ec:	200003a6 	.word	0x200003a6
 80010f0:	20000198 	.word	0x20000198
 80010f4:	2000037e 	.word	0x2000037e
 80010f8:	20000148 	.word	0x20000148
 80010fc:	20000356 	.word	0x20000356
 8001100:	200000f8 	.word	0x200000f8
 8001104:	2000032e 	.word	0x2000032e
 8001108:	200000a8 	.word	0x200000a8
 800110c:	ee18 0a90 	vmov	r0, s17
 8001110:	e6cb      	b.n	8000eaa <Generate_Waveforms+0x182>
 8001112:	f1a8 000a 	sub.w	r0, r8, #10
 8001116:	f7ff f9fd 	bl	8000514 <__aeabi_i2d>
 800111a:	4602      	mov	r2, r0
 800111c:	460b      	mov	r3, r1
 800111e:	f7ff f8ad 	bl	800027c <__adddf3>
 8001122:	4622      	mov	r2, r4
 8001124:	462b      	mov	r3, r5
 8001126:	f7ff fa5f 	bl	80005e8 <__aeabi_dmul>
 800112a:	4632      	mov	r2, r6
 800112c:	463b      	mov	r3, r7
 800112e:	f7ff fb85 	bl	800083c <__aeabi_ddiv>
 8001132:	4602      	mov	r2, r0
 8001134:	460b      	mov	r3, r1
 8001136:	2000      	movs	r0, #0
 8001138:	f04f 4180 	mov.w	r1, #1073741824	@ 0x40000000
 800113c:	f7ff f89c 	bl	8000278 <__aeabi_dsub>
 8001140:	e72e      	b.n	8000fa0 <Generate_Waveforms+0x278>
 8001142:	bf00      	nop
 8001144:	0000      	movs	r0, r0
	...

08001148 <Generate_Low_Wave>:
 8001148:	b508      	push	{r3, lr}
 800114a:	4b11      	ldr	r3, [pc, #68]	@ (8001190 <Generate_Low_Wave+0x48>)
 800114c:	6818      	ldr	r0, [r3, #0]
 800114e:	f7ff f9f3 	bl	8000538 <__aeabi_f2d>
 8001152:	a30b      	add	r3, pc, #44	@ (adr r3, 8001180 <Generate_Low_Wave+0x38>)
 8001154:	e9d3 2300 	ldrd	r2, r3, [r3]
 8001158:	f7ff fa46 	bl	80005e8 <__aeabi_dmul>
 800115c:	a30a      	add	r3, pc, #40	@ (adr r3, 8001188 <Generate_Low_Wave+0x40>)
 800115e:	e9d3 2300 	ldrd	r2, r3, [r3]
 8001162:	f7ff fb6b 	bl	800083c <__aeabi_ddiv>
 8001166:	f7ff fd01 	bl	8000b6c <__aeabi_d2uiz>
 800116a:	4a0a      	ldr	r2, [pc, #40]	@ (8001194 <Generate_Low_Wave+0x4c>)
 800116c:	b280      	uxth	r0, r0
 800116e:	2300      	movs	r3, #0
 8001170:	3301      	adds	r3, #1
 8001172:	2b14      	cmp	r3, #20
 8001174:	f822 0b02 	strh.w	r0, [r2], #2
 8001178:	d1fa      	bne.n	8001170 <Generate_Low_Wave+0x28>
 800117a:	bd08      	pop	{r3, pc}
 800117c:	f3af 8000 	nop.w
 8001180:	cccccccd 	.word	0xcccccccd
 8001184:	3ff4cccc 	.word	0x3ff4cccc
 8001188:	66666666 	.word	0x66666666
 800118c:	400a6666 	.word	0x400a6666
 8001190:	20000020 	.word	0x20000020
 8001194:	200002de 	.word	0x200002de

08001198 <SystemClock_Config>:
 8001198:	b500      	push	{lr}
 800119a:	b097      	sub	sp, #92	@ 0x5c
 800119c:	2244      	movs	r2, #68	@ 0x44
 800119e:	2100      	movs	r1, #0
 80011a0:	a805      	add	r0, sp, #20
 80011a2:	f001 fd48 	bl	8002c36 <memset>
 80011a6:	2214      	movs	r2, #20
 80011a8:	2100      	movs	r1, #0
 80011aa:	4668      	mov	r0, sp
 80011ac:	f001 fd43 	bl	8002c36 <memset>
 80011b0:	f44f 7000 	mov.w	r0, #512	@ 0x200
 80011b4:	f000 fe56 	bl	8001e64 <HAL_PWREx_ControlVoltageScaling>
 80011b8:	b108      	cbz	r0, 80011be <SystemClock_Config+0x26>
 80011ba:	b672      	cpsid	i
 80011bc:	e7fe      	b.n	80011bc <SystemClock_Config+0x24>
 80011be:	2210      	movs	r2, #16
 80011c0:	f44f 7180 	mov.w	r1, #256	@ 0x100
 80011c4:	2001      	movs	r0, #1
 80011c6:	e9cd 1208 	strd	r1, r2, [sp, #32]
 80011ca:	220a      	movs	r2, #10
 80011cc:	2302      	movs	r3, #2
 80011ce:	e9cd 0211 	strd	r0, r2, [sp, #68]	@ 0x44
 80011d2:	2207      	movs	r2, #7
 80011d4:	a805      	add	r0, sp, #20
 80011d6:	e9cd 330f 	strd	r3, r3, [sp, #60]	@ 0x3c
 80011da:	e9cd 2313 	strd	r2, r3, [sp, #76]	@ 0x4c
 80011de:	9305      	str	r3, [sp, #20]
 80011e0:	9315      	str	r3, [sp, #84]	@ 0x54
 80011e2:	f000 ff01 	bl	8001fe8 <HAL_RCC_OscConfig>
 80011e6:	b108      	cbz	r0, 80011ec <SystemClock_Config+0x54>
 80011e8:	b672      	cpsid	i
 80011ea:	e7fe      	b.n	80011ea <SystemClock_Config+0x52>
 80011ec:	e9cd 0002 	strd	r0, r0, [sp, #8]
 80011f0:	220f      	movs	r2, #15
 80011f2:	2303      	movs	r3, #3
 80011f4:	9004      	str	r0, [sp, #16]
 80011f6:	2104      	movs	r1, #4
 80011f8:	4668      	mov	r0, sp
 80011fa:	e9cd 2300 	strd	r2, r3, [sp]
 80011fe:	f001 f971 	bl	80024e4 <HAL_RCC_ClockConfig>
 8001202:	b108      	cbz	r0, 8001208 <SystemClock_Config+0x70>
 8001204:	b672      	cpsid	i
 8001206:	e7fe      	b.n	8001206 <SystemClock_Config+0x6e>
 8001208:	b017      	add	sp, #92	@ 0x5c
 800120a:	f85d fb04 	ldr.w	pc, [sp], #4
	...

08001210 <main>:
 8001210:	b580      	push	{r7, lr}
 8001212:	4c67      	ldr	r4, [pc, #412]	@ (80013b0 <main+0x1a0>)
 8001214:	4e67      	ldr	r6, [pc, #412]	@ (80013b4 <main+0x1a4>)
 8001216:	b092      	sub	sp, #72	@ 0x48
 8001218:	2710      	movs	r7, #16
 800121a:	f000 fa1b 	bl	8001654 <HAL_Init>
 800121e:	f7ff fd83 	bl	8000d28 <Generate_Waveforms>
 8001222:	f7ff ff91 	bl	8001148 <Generate_Low_Wave>
 8001226:	f7ff ffb7 	bl	8001198 <SystemClock_Config>
 800122a:	463a      	mov	r2, r7
 800122c:	2100      	movs	r1, #0
 800122e:	a80a      	add	r0, sp, #40	@ 0x28
 8001230:	f001 fd01 	bl	8002c36 <memset>
 8001234:	6ce3      	ldr	r3, [r4, #76]	@ 0x4c
 8001236:	4860      	ldr	r0, [pc, #384]	@ (80013b8 <main+0x1a8>)
 8001238:	f043 0304 	orr.w	r3, r3, #4
 800123c:	64e3      	str	r3, [r4, #76]	@ 0x4c
 800123e:	6ce3      	ldr	r3, [r4, #76]	@ 0x4c
 8001240:	f003 0304 	and.w	r3, r3, #4
 8001244:	9304      	str	r3, [sp, #16]
 8001246:	9b04      	ldr	r3, [sp, #16]
 8001248:	6ce3      	ldr	r3, [r4, #76]	@ 0x4c
 800124a:	f043 0301 	orr.w	r3, r3, #1
 800124e:	64e3      	str	r3, [r4, #76]	@ 0x4c
 8001250:	6ce3      	ldr	r3, [r4, #76]	@ 0x4c
 8001252:	f003 0301 	and.w	r3, r3, #1
 8001256:	9305      	str	r3, [sp, #20]
 8001258:	9b05      	ldr	r3, [sp, #20]
 800125a:	a909      	add	r1, sp, #36	@ 0x24
 800125c:	f44f 5300 	mov.w	r3, #8192	@ 0x2000
 8001260:	9309      	str	r3, [sp, #36]	@ 0x24
 8001262:	f000 fd17 	bl	8001c94 <HAL_GPIO_Init>
 8001266:	6ca3      	ldr	r3, [r4, #72]	@ 0x48
 8001268:	f043 0301 	orr.w	r3, r3, #1
 800126c:	64a3      	str	r3, [r4, #72]	@ 0x48
 800126e:	6ca3      	ldr	r3, [r4, #72]	@ 0x48
 8001270:	2200      	movs	r2, #0
 8001272:	f003 0301 	and.w	r3, r3, #1
 8001276:	4611      	mov	r1, r2
 8001278:	9303      	str	r3, [sp, #12]
 800127a:	200d      	movs	r0, #13
 800127c:	9b03      	ldr	r3, [sp, #12]
 800127e:	2424      	movs	r4, #36	@ 0x24
 8001280:	f000 fa36 	bl	80016f0 <HAL_NVIC_SetPriority>
 8001284:	200d      	movs	r0, #13
 8001286:	f000 fa65 	bl	8001754 <HAL_NVIC_EnableIRQ>
 800128a:	4622      	mov	r2, r4
 800128c:	2100      	movs	r1, #0
 800128e:	eb0d 0004 	add.w	r0, sp, r4
 8001292:	f001 fcd0 	bl	8002c36 <memset>
 8001296:	4b49      	ldr	r3, [pc, #292]	@ (80013bc <main+0x1ac>)
 8001298:	6033      	str	r3, [r6, #0]
 800129a:	4630      	mov	r0, r6
 800129c:	f000 fa7c 	bl	8001798 <HAL_DAC_Init>
 80012a0:	4602      	mov	r2, r0
 80012a2:	b108      	cbz	r0, 80012a8 <main+0x98>
 80012a4:	b672      	cpsid	i
 80012a6:	e7fe      	b.n	80012a6 <main+0x96>
 80012a8:	e9cd 0409 	strd	r0, r4, [sp, #36]	@ 0x24
 80012ac:	e9cd 000b 	strd	r0, r0, [sp, #44]	@ 0x2c
 80012b0:	900d      	str	r0, [sp, #52]	@ 0x34
 80012b2:	a909      	add	r1, sp, #36	@ 0x24
 80012b4:	4630      	mov	r0, r6
 80012b6:	f000 fb2f 	bl	8001918 <HAL_DAC_ConfigChannel>
 80012ba:	4605      	mov	r5, r0
 80012bc:	b108      	cbz	r0, 80012c2 <main+0xb2>
 80012be:	b672      	cpsid	i
 80012c0:	e7fe      	b.n	80012c0 <main+0xb0>
 80012c2:	4c3f      	ldr	r4, [pc, #252]	@ (80013c0 <main+0x1b0>)
 80012c4:	463a      	mov	r2, r7
 80012c6:	4601      	mov	r1, r0
 80012c8:	a809      	add	r0, sp, #36	@ 0x24
 80012ca:	f001 fcb4 	bl	8002c36 <memset>
 80012ce:	f640 739f 	movw	r3, #3999	@ 0xf9f
 80012d2:	f04f 4280 	mov.w	r2, #1073741824	@ 0x40000000
 80012d6:	e9c4 2300 	strd	r2, r3, [r4]
 80012da:	2313      	movs	r3, #19
 80012dc:	e9c4 3503 	strd	r3, r5, [r4, #12]
 80012e0:	4620      	mov	r0, r4
 80012e2:	2380      	movs	r3, #128	@ 0x80
 80012e4:	e9cd 5506 	strd	r5, r5, [sp, #24]
 80012e8:	9508      	str	r5, [sp, #32]
 80012ea:	60a7      	str	r7, [r4, #8]
 80012ec:	61a3      	str	r3, [r4, #24]
 80012ee:	f001 fa45 	bl	800277c <HAL_TIM_Base_Init>
 80012f2:	b108      	cbz	r0, 80012f8 <main+0xe8>
 80012f4:	b672      	cpsid	i
 80012f6:	e7fe      	b.n	80012f6 <main+0xe6>
 80012f8:	f44f 5380 	mov.w	r3, #4096	@ 0x1000
 80012fc:	a909      	add	r1, sp, #36	@ 0x24
 80012fe:	4620      	mov	r0, r4
 8001300:	9309      	str	r3, [sp, #36]	@ 0x24
 8001302:	f001 fa75 	bl	80027f0 <HAL_TIM_ConfigClockSource>
 8001306:	b108      	cbz	r0, 800130c <main+0xfc>
 8001308:	b672      	cpsid	i
 800130a:	e7fe      	b.n	800130a <main+0xfa>
 800130c:	2320      	movs	r3, #32
 800130e:	9008      	str	r0, [sp, #32]
 8001310:	a906      	add	r1, sp, #24
 8001312:	4620      	mov	r0, r4
 8001314:	9306      	str	r3, [sp, #24]
 8001316:	f001 fb05 	bl	8002924 <HAL_TIMEx_MasterConfigSynchronization>
 800131a:	4607      	mov	r7, r0
 800131c:	b108      	cbz	r0, 8001322 <main+0x112>
 800131e:	b672      	cpsid	i
 8001320:	e7fe      	b.n	8001320 <main+0x110>
 8001322:	4d28      	ldr	r5, [pc, #160]	@ (80013c4 <main+0x1b4>)
 8001324:	4630      	mov	r0, r6
 8001326:	f000 fa37 	bl	8001798 <HAL_DAC_Init>
 800132a:	7829      	ldrb	r1, [r5, #0]
 800132c:	4a26      	ldr	r2, [pc, #152]	@ (80013c8 <main+0x1b8>)
 800132e:	9700      	str	r7, [sp, #0]
 8001330:	f852 2021 	ldr.w	r2, [r2, r1, lsl #2]
 8001334:	2314      	movs	r3, #20
 8001336:	4639      	mov	r1, r7
 8001338:	4630      	mov	r0, r6
 800133a:	f000 fa41 	bl	80017c0 <HAL_DAC_Start_DMA>
 800133e:	4620      	mov	r0, r4
 8001340:	f001 f97a 	bl	8002638 <HAL_TIM_Base_Start>
 8001344:	4f1c      	ldr	r7, [pc, #112]	@ (80013b8 <main+0x1a8>)
 8001346:	4e21      	ldr	r6, [pc, #132]	@ (80013cc <main+0x1bc>)
 8001348:	f8df 8090 	ldr.w	r8, [pc, #144]	@ 80013dc <main+0x1cc>
 800134c:	f44f 5100 	mov.w	r1, #8192	@ 0x2000
 8001350:	4638      	mov	r0, r7
 8001352:	f000 fd79 	bl	8001e48 <HAL_GPIO_ReadPin>
 8001356:	f898 4000 	ldrb.w	r4, [r8]
 800135a:	7030      	strb	r0, [r6, #0]
 800135c:	2c01      	cmp	r4, #1
 800135e:	d11e      	bne.n	800139e <main+0x18e>
 8001360:	f8df 9074 	ldr.w	r9, [pc, #116]	@ 80013d8 <main+0x1c8>
 8001364:	f899 3000 	ldrb.w	r3, [r9]
 8001368:	4318      	orrs	r0, r3
 800136a:	d118      	bne.n	800139e <main+0x18e>
 800136c:	2032      	movs	r0, #50	@ 0x32
 800136e:	f000 f999 	bl	80016a4 <HAL_Delay>
 8001372:	f44f 5100 	mov.w	r1, #8192	@ 0x2000
 8001376:	4638      	mov	r0, r7
 8001378:	f000 fd66 	bl	8001e48 <HAL_GPIO_ReadPin>
 800137c:	b978      	cbnz	r0, 800139e <main+0x18e>
 800137e:	782b      	ldrb	r3, [r5, #0]
 8001380:	f889 4000 	strb.w	r4, [r9]
 8001384:	3301      	adds	r3, #1
 8001386:	2207      	movs	r2, #7
 8001388:	fbb3 f2f2 	udiv	r2, r3, r2
 800138c:	ebc2 02c2 	rsb	r2, r2, r2, lsl #3
 8001390:	1a9b      	subs	r3, r3, r2
 8001392:	4a0f      	ldr	r2, [pc, #60]	@ (80013d0 <main+0x1c0>)
 8001394:	b2db      	uxtb	r3, r3
 8001396:	7013      	strb	r3, [r2, #0]
 8001398:	702b      	strb	r3, [r5, #0]
 800139a:	4b0e      	ldr	r3, [pc, #56]	@ (80013d4 <main+0x1c4>)
 800139c:	701c      	strb	r4, [r3, #0]
 800139e:	7833      	ldrb	r3, [r6, #0]
 80013a0:	f888 3000 	strb.w	r3, [r8]
 80013a4:	2b01      	cmp	r3, #1
 80013a6:	bf02      	ittt	eq
 80013a8:	4a0b      	ldreq	r2, [pc, #44]	@ (80013d8 <main+0x1c8>)
 80013aa:	2100      	moveq	r1, #0
 80013ac:	7011      	strbeq	r1, [r2, #0]
 80013ae:	e7cb      	b.n	8001348 <main+0x138>
 80013b0:	40021000 	.word	0x40021000
 80013b4:	200004b4 	.word	0x200004b4
 80013b8:	48000800 	.word	0x48000800
 80013bc:	40007400 	.word	0x40007400
 80013c0:	20000420 	.word	0x20000420
 80013c4:	200002db 	.word	0x200002db
 80013c8:	20000004 	.word	0x20000004
 80013cc:	20000001 	.word	0x20000001
 80013d0:	200002d9 	.word	0x200002d9
 80013d4:	200002da 	.word	0x200002da
 80013d8:	200002d8 	.word	0x200002d8
 80013dc:	20000000 	.word	0x20000000

080013e0 <Error_Handler>:
 80013e0:	b672      	cpsid	i
 80013e2:	e7fe      	b.n	80013e2 <Error_Handler+0x2>

080013e4 <HAL_MspInit>:
 80013e4:	4b0a      	ldr	r3, [pc, #40]	@ (8001410 <HAL_MspInit+0x2c>)
 80013e6:	6e1a      	ldr	r2, [r3, #96]	@ 0x60
 80013e8:	f042 0201 	orr.w	r2, r2, #1
 80013ec:	b082      	sub	sp, #8
 80013ee:	661a      	str	r2, [r3, #96]	@ 0x60
 80013f0:	6e1a      	ldr	r2, [r3, #96]	@ 0x60
 80013f2:	f002 0201 	and.w	r2, r2, #1
 80013f6:	9200      	str	r2, [sp, #0]
 80013f8:	9a00      	ldr	r2, [sp, #0]
 80013fa:	6d9a      	ldr	r2, [r3, #88]	@ 0x58
 80013fc:	f042 5280 	orr.w	r2, r2, #268435456	@ 0x10000000
 8001400:	659a      	str	r2, [r3, #88]	@ 0x58
 8001402:	6d9b      	ldr	r3, [r3, #88]	@ 0x58
 8001404:	f003 5380 	and.w	r3, r3, #268435456	@ 0x10000000
 8001408:	9301      	str	r3, [sp, #4]
 800140a:	9b01      	ldr	r3, [sp, #4]
 800140c:	b002      	add	sp, #8
 800140e:	4770      	bx	lr
 8001410:	40021000 	.word	0x40021000

08001414 <HAL_DAC_MspInit>:
 8001414:	b570      	push	{r4, r5, r6, lr}
 8001416:	4605      	mov	r5, r0
 8001418:	b088      	sub	sp, #32
 800141a:	2214      	movs	r2, #20
 800141c:	2100      	movs	r1, #0
 800141e:	a803      	add	r0, sp, #12
 8001420:	f001 fc09 	bl	8002c36 <memset>
 8001424:	682a      	ldr	r2, [r5, #0]
 8001426:	4b1e      	ldr	r3, [pc, #120]	@ (80014a0 <HAL_DAC_MspInit+0x8c>)
 8001428:	429a      	cmp	r2, r3
 800142a:	d137      	bne.n	800149c <HAL_DAC_MspInit+0x88>
 800142c:	f503 33ce 	add.w	r3, r3, #105472	@ 0x19c00
 8001430:	2610      	movs	r6, #16
 8001432:	6d9a      	ldr	r2, [r3, #88]	@ 0x58
 8001434:	4c1b      	ldr	r4, [pc, #108]	@ (80014a4 <HAL_DAC_MspInit+0x90>)
 8001436:	f042 5200 	orr.w	r2, r2, #536870912	@ 0x20000000
 800143a:	659a      	str	r2, [r3, #88]	@ 0x58
 800143c:	6d9a      	ldr	r2, [r3, #88]	@ 0x58
 800143e:	f002 5200 	and.w	r2, r2, #536870912	@ 0x20000000
 8001442:	9201      	str	r2, [sp, #4]
 8001444:	9a01      	ldr	r2, [sp, #4]
 8001446:	6cda      	ldr	r2, [r3, #76]	@ 0x4c
 8001448:	f042 0201 	orr.w	r2, r2, #1
 800144c:	64da      	str	r2, [r3, #76]	@ 0x4c
 800144e:	6cdb      	ldr	r3, [r3, #76]	@ 0x4c
 8001450:	f003 0301 	and.w	r3, r3, #1
 8001454:	9302      	str	r3, [sp, #8]
 8001456:	9b02      	ldr	r3, [sp, #8]
 8001458:	a903      	add	r1, sp, #12
 800145a:	2303      	movs	r3, #3
 800145c:	f04f 4090 	mov.w	r0, #1207959552	@ 0x48000000
 8001460:	e9cd 6303 	strd	r6, r3, [sp, #12]
 8001464:	f000 fc16 	bl	8001c94 <HAL_GPIO_Init>
 8001468:	4a0f      	ldr	r2, [pc, #60]	@ (80014a8 <HAL_DAC_MspInit+0x94>)
 800146a:	60a6      	str	r6, [r4, #8]
 800146c:	2306      	movs	r3, #6
 800146e:	e9c4 2300 	strd	r2, r3, [r4]
 8001472:	2300      	movs	r3, #0
 8001474:	2280      	movs	r2, #128	@ 0x80
 8001476:	e9c4 3203 	strd	r3, r2, [r4, #12]
 800147a:	f44f 7180 	mov.w	r1, #256	@ 0x100
 800147e:	f44f 6280 	mov.w	r2, #1024	@ 0x400
 8001482:	e9c4 1205 	strd	r1, r2, [r4, #20]
 8001486:	4620      	mov	r0, r4
 8001488:	2220      	movs	r2, #32
 800148a:	e9c4 2307 	strd	r2, r3, [r4, #28]
 800148e:	f000 faf1 	bl	8001a74 <HAL_DMA_Init>
 8001492:	b108      	cbz	r0, 8001498 <HAL_DAC_MspInit+0x84>
 8001494:	f7ff ffa4 	bl	80013e0 <Error_Handler>
 8001498:	60ac      	str	r4, [r5, #8]
 800149a:	62a5      	str	r5, [r4, #40]	@ 0x28
 800149c:	b008      	add	sp, #32
 800149e:	bd70      	pop	{r4, r5, r6, pc}
 80014a0:	40007400 	.word	0x40007400
 80014a4:	2000046c 	.word	0x2000046c
 80014a8:	40020030 	.word	0x40020030

080014ac <HAL_TIM_Base_MspInit>:
 80014ac:	6803      	ldr	r3, [r0, #0]
 80014ae:	f1b3 4f80 	cmp.w	r3, #1073741824	@ 0x40000000
 80014b2:	b082      	sub	sp, #8
 80014b4:	d10a      	bne.n	80014cc <HAL_TIM_Base_MspInit+0x20>
 80014b6:	f503 3304 	add.w	r3, r3, #135168	@ 0x21000
 80014ba:	6d9a      	ldr	r2, [r3, #88]	@ 0x58
 80014bc:	f042 0201 	orr.w	r2, r2, #1
 80014c0:	659a      	str	r2, [r3, #88]	@ 0x58
 80014c2:	6d9b      	ldr	r3, [r3, #88]	@ 0x58
 80014c4:	f003 0301 	and.w	r3, r3, #1
 80014c8:	9301      	str	r3, [sp, #4]
 80014ca:	9b01      	ldr	r3, [sp, #4]
 80014cc:	b002      	add	sp, #8
 80014ce:	4770      	bx	lr

080014d0 <NMI_Handler>:
 80014d0:	e7fe      	b.n	80014d0 <NMI_Handler>

080014d2 <HardFault_Handler>:
 80014d2:	e7fe      	b.n	80014d2 <HardFault_Handler>

080014d4 <MemManage_Handler>:
 80014d4:	e7fe      	b.n	80014d4 <MemManage_Handler>

080014d6 <BusFault_Handler>:
 80014d6:	e7fe      	b.n	80014d6 <BusFault_Handler>

080014d8 <UsageFault_Handler>:
 80014d8:	e7fe      	b.n	80014d8 <UsageFault_Handler>

080014da <SVC_Handler>:
 80014da:	4770      	bx	lr

080014dc <DebugMon_Handler>:
 80014dc:	4770      	bx	lr

080014de <PendSV_Handler>:
 80014de:	4770      	bx	lr

080014e0 <SysTick_Handler>:
 80014e0:	f000 b8ce 	b.w	8001680 <HAL_IncTick>

080014e4 <DMA1_Channel3_IRQHandler>:
 80014e4:	4801      	ldr	r0, [pc, #4]	@ (80014ec <DMA1_Channel3_IRQHandler+0x8>)
 80014e6:	f000 bb8a 	b.w	8001bfe <HAL_DMA_IRQHandler>
 80014ea:	bf00      	nop
 80014ec:	2000046c 	.word	0x2000046c

080014f0 <_getpid>:
 80014f0:	2001      	movs	r0, #1
 80014f2:	4770      	bx	lr

080014f4 <_kill>:
 80014f4:	b508      	push	{r3, lr}
 80014f6:	f001 fbed 	bl	8002cd4 <__errno>
 80014fa:	2316      	movs	r3, #22
 80014fc:	6003      	str	r3, [r0, #0]
 80014fe:	f04f 30ff 	mov.w	r0, #4294967295
 8001502:	bd08      	pop	{r3, pc}

08001504 <_exit>:
 8001504:	b508      	push	{r3, lr}
 8001506:	f001 fbe5 	bl	8002cd4 <__errno>
 800150a:	2316      	movs	r3, #22
 800150c:	6003      	str	r3, [r0, #0]
 800150e:	e7fe      	b.n	800150e <_exit+0xa>

08001510 <_read>:
 8001510:	b570      	push	{r4, r5, r6, lr}
 8001512:	460d      	mov	r5, r1
 8001514:	4614      	mov	r4, r2
 8001516:	460e      	mov	r6, r1
 8001518:	1b73      	subs	r3, r6, r5
 800151a:	429c      	cmp	r4, r3
 800151c:	dc01      	bgt.n	8001522 <_read+0x12>
 800151e:	4620      	mov	r0, r4
 8001520:	bd70      	pop	{r4, r5, r6, pc}
 8001522:	f3af 8000 	nop.w
 8001526:	f806 0b01 	strb.w	r0, [r6], #1
 800152a:	e7f5      	b.n	8001518 <_read+0x8>

0800152c <_write>:
 800152c:	b570      	push	{r4, r5, r6, lr}
 800152e:	460d      	mov	r5, r1
 8001530:	4614      	mov	r4, r2
 8001532:	460e      	mov	r6, r1
 8001534:	1b73      	subs	r3, r6, r5
 8001536:	429c      	cmp	r4, r3
 8001538:	dc01      	bgt.n	800153e <_write+0x12>
 800153a:	4620      	mov	r0, r4
 800153c:	bd70      	pop	{r4, r5, r6, pc}
 800153e:	f816 0b01 	ldrb.w	r0, [r6], #1
 8001542:	f3af 8000 	nop.w
 8001546:	e7f5      	b.n	8001534 <_write+0x8>

08001548 <_close>:
 8001548:	f04f 30ff 	mov.w	r0, #4294967295
 800154c:	4770      	bx	lr

0800154e <_fstat>:
 800154e:	f44f 5300 	mov.w	r3, #8192	@ 0x2000
 8001552:	604b      	str	r3, [r1, #4]
 8001554:	2000      	movs	r0, #0
 8001556:	4770      	bx	lr

08001558 <_isatty>:
 8001558:	2001      	movs	r0, #1
 800155a:	4770      	bx	lr

0800155c <_lseek>:
 800155c:	2000      	movs	r0, #0
 800155e:	4770      	bx	lr

08001560 <_sbrk>:
 8001560:	4a0b      	ldr	r2, [pc, #44]	@ (8001590 <_sbrk+0x30>)
 8001562:	6811      	ldr	r1, [r2, #0]
 8001564:	b510      	push	{r4, lr}
 8001566:	4603      	mov	r3, r0
 8001568:	b909      	cbnz	r1, 800156e <_sbrk+0xe>
 800156a:	490a      	ldr	r1, [pc, #40]	@ (8001594 <_sbrk+0x34>)
 800156c:	6011      	str	r1, [r2, #0]
 800156e:	6810      	ldr	r0, [r2, #0]
 8001570:	4909      	ldr	r1, [pc, #36]	@ (8001598 <_sbrk+0x38>)
 8001572:	4c0a      	ldr	r4, [pc, #40]	@ (800159c <_sbrk+0x3c>)
 8001574:	4403      	add	r3, r0
 8001576:	1b09      	subs	r1, r1, r4
 8001578:	428b      	cmp	r3, r1
 800157a:	d906      	bls.n	800158a <_sbrk+0x2a>
 800157c:	f001 fbaa 	bl	8002cd4 <__errno>
 8001580:	230c      	movs	r3, #12
 8001582:	6003      	str	r3, [r0, #0]
 8001584:	f04f 30ff 	mov.w	r0, #4294967295
 8001588:	bd10      	pop	{r4, pc}
 800158a:	6013      	str	r3, [r2, #0]
 800158c:	e7fc      	b.n	8001588 <_sbrk+0x28>
 800158e:	bf00      	nop
 8001590:	200004c8 	.word	0x200004c8
 8001594:	20000620 	.word	0x20000620
 8001598:	20018000 	.word	0x20018000
 800159c:	00000400 	.word	0x00000400

080015a0 <SystemInit>:
 80015a0:	4a03      	ldr	r2, [pc, #12]	@ (80015b0 <SystemInit+0x10>)
 80015a2:	f8d2 3088 	ldr.w	r3, [r2, #136]	@ 0x88
 80015a6:	f443 0370 	orr.w	r3, r3, #15728640	@ 0xf00000
 80015aa:	f8c2 3088 	str.w	r3, [r2, #136]	@ 0x88
 80015ae:	4770      	bx	lr
 80015b0:	e000ed00 	.word	0xe000ed00

080015b4 <Reset_Handler>:
 80015b4:	f8df d034 	ldr.w	sp, [pc, #52]	@ 80015ec <LoopForever+0x2>
 80015b8:	f7ff fff2 	bl	80015a0 <SystemInit>
 80015bc:	480c      	ldr	r0, [pc, #48]	@ (80015f0 <LoopForever+0x6>)
 80015be:	490d      	ldr	r1, [pc, #52]	@ (80015f4 <LoopForever+0xa>)
 80015c0:	4a0d      	ldr	r2, [pc, #52]	@ (80015f8 <LoopForever+0xe>)
 80015c2:	2300      	movs	r3, #0
 80015c4:	e002      	b.n	80015cc <LoopCopyDataInit>

080015c6 <CopyDataInit>:
 80015c6:	58d4      	ldr	r4, [r2, r3]
 80015c8:	50c4      	str	r4, [r0, r3]
 80015ca:	3304      	adds	r3, #4

080015cc <LoopCopyDataInit>:
 80015cc:	18c4      	adds	r4, r0, r3
 80015ce:	428c      	cmp	r4, r1
 80015d0:	d3f9      	bcc.n	80015c6 <CopyDataInit>
 80015d2:	4a0a      	ldr	r2, [pc, #40]	@ (80015fc <LoopForever+0x12>)
 80015d4:	4c0a      	ldr	r4, [pc, #40]	@ (8001600 <LoopForever+0x16>)
 80015d6:	2300      	movs	r3, #0
 80015d8:	e001      	b.n	80015de <LoopFillZerobss>

080015da <FillZerobss>:
 80015da:	6013      	str	r3, [r2, #0]
 80015dc:	3204      	adds	r2, #4

080015de <LoopFillZerobss>:
 80015de:	42a2      	cmp	r2, r4
 80015e0:	d3fb      	bcc.n	80015da <FillZerobss>
 80015e2:	f001 fb7d 	bl	8002ce0 <__libc_init_array>
 80015e6:	f7ff fe13 	bl	8001210 <main>

080015ea <LoopForever>:
 80015ea:	e7fe      	b.n	80015ea <LoopForever>
 80015ec:	20018000 	.word	0x20018000
 80015f0:	20000000 	.word	0x20000000
 80015f4:	2000008c 	.word	0x2000008c
 80015f8:	08004cd0 	.word	0x08004cd0
 80015fc:	2000008c 	.word	0x2000008c
 8001600:	2000061c 	.word	0x2000061c

08001604 <ADC1_2_IRQHandler>:
 8001604:	e7fe      	b.n	8001604 <ADC1_2_IRQHandler>
	...

08001608 <HAL_InitTick>:
 8001608:	b538      	push	{r3, r4, r5, lr}
 800160a:	4b0f      	ldr	r3, [pc, #60]	@ (8001648 <HAL_InitTick+0x40>)
 800160c:	781a      	ldrb	r2, [r3, #0]
 800160e:	4605      	mov	r5, r0
 8001610:	b90a      	cbnz	r2, 8001616 <HAL_InitTick+0xe>
 8001612:	2001      	movs	r0, #1
 8001614:	bd38      	pop	{r3, r4, r5, pc}
 8001616:	f44f 737a 	mov.w	r3, #1000	@ 0x3e8
 800161a:	fbb3 f3f2 	udiv	r3, r3, r2
 800161e:	4a0b      	ldr	r2, [pc, #44]	@ (800164c <HAL_InitTick+0x44>)
 8001620:	6810      	ldr	r0, [r2, #0]
 8001622:	fbb0 f0f3 	udiv	r0, r0, r3
 8001626:	f000 f8a3 	bl	8001770 <HAL_SYSTICK_Config>
 800162a:	4604      	mov	r4, r0
 800162c:	2800      	cmp	r0, #0
 800162e:	d1f0      	bne.n	8001612 <HAL_InitTick+0xa>
 8001630:	2d0f      	cmp	r5, #15
 8001632:	d8ee      	bhi.n	8001612 <HAL_InitTick+0xa>
 8001634:	4602      	mov	r2, r0
 8001636:	4629      	mov	r1, r5
 8001638:	f04f 30ff 	mov.w	r0, #4294967295
 800163c:	f000 f858 	bl	80016f0 <HAL_NVIC_SetPriority>
 8001640:	4b03      	ldr	r3, [pc, #12]	@ (8001650 <HAL_InitTick+0x48>)
 8001642:	4620      	mov	r0, r4
 8001644:	601d      	str	r5, [r3, #0]
 8001646:	e7e5      	b.n	8001614 <HAL_InitTick+0xc>
 8001648:	20000028 	.word	0x20000028
 800164c:	20000024 	.word	0x20000024
 8001650:	2000002c 	.word	0x2000002c

08001654 <HAL_Init>:
 8001654:	4a09      	ldr	r2, [pc, #36]	@ (800167c <HAL_Init+0x28>)
 8001656:	6813      	ldr	r3, [r2, #0]
 8001658:	f443 7380 	orr.w	r3, r3, #256	@ 0x100
 800165c:	b510      	push	{r4, lr}
 800165e:	2003      	movs	r0, #3
 8001660:	6013      	str	r3, [r2, #0]
 8001662:	f000 f833 	bl	80016cc <HAL_NVIC_SetPriorityGrouping>
 8001666:	2000      	movs	r0, #0
 8001668:	f7ff ffce 	bl	8001608 <HAL_InitTick>
 800166c:	4604      	mov	r4, r0
 800166e:	b918      	cbnz	r0, 8001678 <HAL_Init+0x24>
 8001670:	f7ff feb8 	bl	80013e4 <HAL_MspInit>
 8001674:	4620      	mov	r0, r4
 8001676:	bd10      	pop	{r4, pc}
 8001678:	2401      	movs	r4, #1
 800167a:	e7fb      	b.n	8001674 <HAL_Init+0x20>
 800167c:	40022000 	.word	0x40022000

08001680 <HAL_IncTick>:
 8001680:	4a03      	ldr	r2, [pc, #12]	@ (8001690 <HAL_IncTick+0x10>)
 8001682:	4b04      	ldr	r3, [pc, #16]	@ (8001694 <HAL_IncTick+0x14>)
 8001684:	6811      	ldr	r1, [r2, #0]
 8001686:	781b      	ldrb	r3, [r3, #0]
 8001688:	440b      	add	r3, r1
 800168a:	6013      	str	r3, [r2, #0]
 800168c:	4770      	bx	lr
 800168e:	bf00      	nop
 8001690:	200004cc 	.word	0x200004cc
 8001694:	20000028 	.word	0x20000028

08001698 <HAL_GetTick>:
 8001698:	4b01      	ldr	r3, [pc, #4]	@ (80016a0 <HAL_GetTick+0x8>)
 800169a:	6818      	ldr	r0, [r3, #0]
 800169c:	4770      	bx	lr
 800169e:	bf00      	nop
 80016a0:	200004cc 	.word	0x200004cc

080016a4 <HAL_Delay>:
 80016a4:	b538      	push	{r3, r4, r5, lr}
 80016a6:	4604      	mov	r4, r0
 80016a8:	f7ff fff6 	bl	8001698 <HAL_GetTick>
 80016ac:	1c63      	adds	r3, r4, #1
 80016ae:	bf1c      	itt	ne
 80016b0:	4b05      	ldrne	r3, [pc, #20]	@ (80016c8 <HAL_Delay+0x24>)
 80016b2:	781b      	ldrbne	r3, [r3, #0]
 80016b4:	4605      	mov	r5, r0
 80016b6:	bf18      	it	ne
 80016b8:	18e4      	addne	r4, r4, r3
 80016ba:	f7ff ffed 	bl	8001698 <HAL_GetTick>
 80016be:	1b43      	subs	r3, r0, r5
 80016c0:	42a3      	cmp	r3, r4
 80016c2:	d3fa      	bcc.n	80016ba <HAL_Delay+0x16>
 80016c4:	bd38      	pop	{r3, r4, r5, pc}
 80016c6:	bf00      	nop
 80016c8:	20000028 	.word	0x20000028

080016cc <HAL_NVIC_SetPriorityGrouping>:
 80016cc:	4907      	ldr	r1, [pc, #28]	@ (80016ec <HAL_NVIC_SetPriorityGrouping+0x20>)
 80016ce:	68ca      	ldr	r2, [r1, #12]
 80016d0:	f422 62e0 	bic.w	r2, r2, #1792	@ 0x700
 80016d4:	0203      	lsls	r3, r0, #8
 80016d6:	0412      	lsls	r2, r2, #16
 80016d8:	f403 63e0 	and.w	r3, r3, #1792	@ 0x700
 80016dc:	0c12      	lsrs	r2, r2, #16
 80016de:	4313      	orrs	r3, r2
 80016e0:	f043 63bf 	orr.w	r3, r3, #100139008	@ 0x5f80000
 80016e4:	f443 3300 	orr.w	r3, r3, #131072	@ 0x20000
 80016e8:	60cb      	str	r3, [r1, #12]
 80016ea:	4770      	bx	lr
 80016ec:	e000ed00 	.word	0xe000ed00

080016f0 <HAL_NVIC_SetPriority>:
 80016f0:	4b16      	ldr	r3, [pc, #88]	@ (800174c <HAL_NVIC_SetPriority+0x5c>)
 80016f2:	b530      	push	{r4, r5, lr}
 80016f4:	68dc      	ldr	r4, [r3, #12]
 80016f6:	f3c4 2402 	ubfx	r4, r4, #8, #3
 80016fa:	f1c4 0307 	rsb	r3, r4, #7
 80016fe:	1d25      	adds	r5, r4, #4
 8001700:	2b04      	cmp	r3, #4
 8001702:	bf28      	it	cs
 8001704:	2304      	movcs	r3, #4
 8001706:	2d06      	cmp	r5, #6
 8001708:	f04f 35ff 	mov.w	r5, #4294967295
 800170c:	bf8c      	ite	hi
 800170e:	3c03      	subhi	r4, #3
 8001710:	2400      	movls	r4, #0
 8001712:	fa05 f303 	lsl.w	r3, r5, r3
 8001716:	ea21 0303 	bic.w	r3, r1, r3
 800171a:	40a5      	lsls	r5, r4
 800171c:	ea22 0205 	bic.w	r2, r2, r5
 8001720:	40a3      	lsls	r3, r4
 8001722:	2800      	cmp	r0, #0
 8001724:	ea43 0302 	orr.w	r3, r3, r2
 8001728:	bfac      	ite	ge
 800172a:	f100 4060 	addge.w	r0, r0, #3758096384	@ 0xe0000000
 800172e:	4a08      	ldrlt	r2, [pc, #32]	@ (8001750 <HAL_NVIC_SetPriority+0x60>)
 8001730:	ea4f 1303 	mov.w	r3, r3, lsl #4
 8001734:	bfb8      	it	lt
 8001736:	f000 000f 	andlt.w	r0, r0, #15
 800173a:	b2db      	uxtb	r3, r3
 800173c:	bfaa      	itet	ge
 800173e:	f500 4061 	addge.w	r0, r0, #57600	@ 0xe100
 8001742:	5413      	strblt	r3, [r2, r0]
 8001744:	f880 3300 	strbge.w	r3, [r0, #768]	@ 0x300
 8001748:	bd30      	pop	{r4, r5, pc}
 800174a:	bf00      	nop
 800174c:	e000ed00 	.word	0xe000ed00
 8001750:	e000ed14 	.word	0xe000ed14

08001754 <HAL_NVIC_EnableIRQ>:
 8001754:	2800      	cmp	r0, #0
 8001756:	db07      	blt.n	8001768 <HAL_NVIC_EnableIRQ+0x14>
 8001758:	4a04      	ldr	r2, [pc, #16]	@ (800176c <HAL_NVIC_EnableIRQ+0x18>)
 800175a:	0941      	lsrs	r1, r0, #5
 800175c:	2301      	movs	r3, #1
 800175e:	f000 001f 	and.w	r0, r0, #31
 8001762:	4083      	lsls	r3, r0
 8001764:	f842 3021 	str.w	r3, [r2, r1, lsl #2]
 8001768:	4770      	bx	lr
 800176a:	bf00      	nop
 800176c:	e000e100 	.word	0xe000e100

08001770 <HAL_SYSTICK_Config>:
 8001770:	3801      	subs	r0, #1
 8001772:	f1b0 7f80 	cmp.w	r0, #16777216	@ 0x1000000
 8001776:	d20b      	bcs.n	8001790 <HAL_SYSTICK_Config+0x20>
 8001778:	f04f 23e0 	mov.w	r3, #3758153728	@ 0xe000e000
 800177c:	4a05      	ldr	r2, [pc, #20]	@ (8001794 <HAL_SYSTICK_Config+0x24>)
 800177e:	6158      	str	r0, [r3, #20]
 8001780:	21f0      	movs	r1, #240	@ 0xf0
 8001782:	f882 1023 	strb.w	r1, [r2, #35]	@ 0x23
 8001786:	2000      	movs	r0, #0
 8001788:	2207      	movs	r2, #7
 800178a:	6198      	str	r0, [r3, #24]
 800178c:	611a      	str	r2, [r3, #16]
 800178e:	4770      	bx	lr
 8001790:	2001      	movs	r0, #1
 8001792:	4770      	bx	lr
 8001794:	e000ed00 	.word	0xe000ed00

08001798 <HAL_DAC_Init>:
 8001798:	b510      	push	{r4, lr}
 800179a:	4604      	mov	r4, r0
 800179c:	b168      	cbz	r0, 80017ba <HAL_DAC_Init+0x22>
 800179e:	7903      	ldrb	r3, [r0, #4]
 80017a0:	f003 02ff 	and.w	r2, r3, #255	@ 0xff
 80017a4:	b913      	cbnz	r3, 80017ac <HAL_DAC_Init+0x14>
 80017a6:	7142      	strb	r2, [r0, #5]
 80017a8:	f7ff fe34 	bl	8001414 <HAL_DAC_MspInit>
 80017ac:	2302      	movs	r3, #2
 80017ae:	7123      	strb	r3, [r4, #4]
 80017b0:	2000      	movs	r0, #0
 80017b2:	2301      	movs	r3, #1
 80017b4:	6120      	str	r0, [r4, #16]
 80017b6:	7123      	strb	r3, [r4, #4]
 80017b8:	bd10      	pop	{r4, pc}
 80017ba:	2001      	movs	r0, #1
 80017bc:	e7fc      	b.n	80017b8 <HAL_DAC_Init+0x20>
	...

080017c0 <HAL_DAC_Start_DMA>:
 80017c0:	b5f8      	push	{r3, r4, r5, r6, r7, lr}
 80017c2:	460e      	mov	r6, r1
 80017c4:	4611      	mov	r1, r2
 80017c6:	7942      	ldrb	r2, [r0, #5]
 80017c8:	9f06      	ldr	r7, [sp, #24]
 80017ca:	2a01      	cmp	r2, #1
 80017cc:	4605      	mov	r5, r0
 80017ce:	f04f 0002 	mov.w	r0, #2
 80017d2:	d028      	beq.n	8001826 <HAL_DAC_Start_DMA+0x66>
 80017d4:	2201      	movs	r2, #1
 80017d6:	682c      	ldr	r4, [r5, #0]
 80017d8:	716a      	strb	r2, [r5, #5]
 80017da:	7128      	strb	r0, [r5, #4]
 80017dc:	bb56      	cbnz	r6, 8001834 <HAL_DAC_Start_DMA+0x74>
 80017de:	68a8      	ldr	r0, [r5, #8]
 80017e0:	4a27      	ldr	r2, [pc, #156]	@ (8001880 <HAL_DAC_Start_DMA+0xc0>)
 80017e2:	62c2      	str	r2, [r0, #44]	@ 0x2c
 80017e4:	4a27      	ldr	r2, [pc, #156]	@ (8001884 <HAL_DAC_Start_DMA+0xc4>)
 80017e6:	6302      	str	r2, [r0, #48]	@ 0x30
 80017e8:	4a27      	ldr	r2, [pc, #156]	@ (8001888 <HAL_DAC_Start_DMA+0xc8>)
 80017ea:	6342      	str	r2, [r0, #52]	@ 0x34
 80017ec:	6822      	ldr	r2, [r4, #0]
 80017ee:	2f04      	cmp	r7, #4
 80017f0:	f442 5280 	orr.w	r2, r2, #4096	@ 0x1000
 80017f4:	6022      	str	r2, [r4, #0]
 80017f6:	d017      	beq.n	8001828 <HAL_DAC_Start_DMA+0x68>
 80017f8:	2f08      	cmp	r7, #8
 80017fa:	d018      	beq.n	800182e <HAL_DAC_Start_DMA+0x6e>
 80017fc:	2f00      	cmp	r7, #0
 80017fe:	d135      	bne.n	800186c <HAL_DAC_Start_DMA+0xac>
 8001800:	f104 0208 	add.w	r2, r4, #8
 8001804:	6827      	ldr	r7, [r4, #0]
 8001806:	f447 5700 	orr.w	r7, r7, #8192	@ 0x2000
 800180a:	6027      	str	r7, [r4, #0]
 800180c:	f000 f998 	bl	8001b40 <HAL_DMA_Start_IT>
 8001810:	2300      	movs	r3, #0
 8001812:	716b      	strb	r3, [r5, #5]
 8001814:	bb70      	cbnz	r0, 8001874 <HAL_DAC_Start_DMA+0xb4>
 8001816:	682a      	ldr	r2, [r5, #0]
 8001818:	f006 0610 	and.w	r6, r6, #16
 800181c:	6811      	ldr	r1, [r2, #0]
 800181e:	2301      	movs	r3, #1
 8001820:	40b3      	lsls	r3, r6
 8001822:	430b      	orrs	r3, r1
 8001824:	6013      	str	r3, [r2, #0]
 8001826:	bdf8      	pop	{r3, r4, r5, r6, r7, pc}
 8001828:	f104 020c 	add.w	r2, r4, #12
 800182c:	e7ea      	b.n	8001804 <HAL_DAC_Start_DMA+0x44>
 800182e:	f104 0210 	add.w	r2, r4, #16
 8001832:	e7e7      	b.n	8001804 <HAL_DAC_Start_DMA+0x44>
 8001834:	68e8      	ldr	r0, [r5, #12]
 8001836:	4a15      	ldr	r2, [pc, #84]	@ (800188c <HAL_DAC_Start_DMA+0xcc>)
 8001838:	62c2      	str	r2, [r0, #44]	@ 0x2c
 800183a:	4a15      	ldr	r2, [pc, #84]	@ (8001890 <HAL_DAC_Start_DMA+0xd0>)
 800183c:	6302      	str	r2, [r0, #48]	@ 0x30
 800183e:	4a15      	ldr	r2, [pc, #84]	@ (8001894 <HAL_DAC_Start_DMA+0xd4>)
 8001840:	6342      	str	r2, [r0, #52]	@ 0x34
 8001842:	6822      	ldr	r2, [r4, #0]
 8001844:	2f04      	cmp	r7, #4
 8001846:	f042 5280 	orr.w	r2, r2, #268435456	@ 0x10000000
 800184a:	6022      	str	r2, [r4, #0]
 800184c:	d008      	beq.n	8001860 <HAL_DAC_Start_DMA+0xa0>
 800184e:	2f08      	cmp	r7, #8
 8001850:	d009      	beq.n	8001866 <HAL_DAC_Start_DMA+0xa6>
 8001852:	b96f      	cbnz	r7, 8001870 <HAL_DAC_Start_DMA+0xb0>
 8001854:	f104 0214 	add.w	r2, r4, #20
 8001858:	6827      	ldr	r7, [r4, #0]
 800185a:	f047 5700 	orr.w	r7, r7, #536870912	@ 0x20000000
 800185e:	e7d4      	b.n	800180a <HAL_DAC_Start_DMA+0x4a>
 8001860:	f104 0218 	add.w	r2, r4, #24
 8001864:	e7f8      	b.n	8001858 <HAL_DAC_Start_DMA+0x98>
 8001866:	f104 021c 	add.w	r2, r4, #28
 800186a:	e7f5      	b.n	8001858 <HAL_DAC_Start_DMA+0x98>
 800186c:	4632      	mov	r2, r6
 800186e:	e7c9      	b.n	8001804 <HAL_DAC_Start_DMA+0x44>
 8001870:	2200      	movs	r2, #0
 8001872:	e7f1      	b.n	8001858 <HAL_DAC_Start_DMA+0x98>
 8001874:	692b      	ldr	r3, [r5, #16]
 8001876:	f043 0304 	orr.w	r3, r3, #4
 800187a:	612b      	str	r3, [r5, #16]
 800187c:	e7d3      	b.n	8001826 <HAL_DAC_Start_DMA+0x66>
 800187e:	bf00      	nop
 8001880:	080018e3 	.word	0x080018e3
 8001884:	080018f5 	.word	0x080018f5
 8001888:	08001901 	.word	0x08001901
 800188c:	08001a43 	.word	0x08001a43
 8001890:	08001a53 	.word	0x08001a53
 8001894:	08001a5d 	.word	0x08001a5d

08001898 <HAL_DAC_Stop_DMA>:
 8001898:	b538      	push	{r3, r4, r5, lr}
 800189a:	6803      	ldr	r3, [r0, #0]
 800189c:	f001 0510 	and.w	r5, r1, #16
 80018a0:	681a      	ldr	r2, [r3, #0]
 80018a2:	4604      	mov	r4, r0
 80018a4:	f44f 5080 	mov.w	r0, #4096	@ 0x1000
 80018a8:	40a8      	lsls	r0, r5
 80018aa:	ea22 0200 	bic.w	r2, r2, r0
 80018ae:	601a      	str	r2, [r3, #0]
 80018b0:	681a      	ldr	r2, [r3, #0]
 80018b2:	2001      	movs	r0, #1
 80018b4:	40a8      	lsls	r0, r5
 80018b6:	ea22 0200 	bic.w	r2, r2, r0
 80018ba:	601a      	str	r2, [r3, #0]
 80018bc:	b949      	cbnz	r1, 80018d2 <HAL_DAC_Stop_DMA+0x3a>
 80018be:	68a0      	ldr	r0, [r4, #8]
 80018c0:	f000 f97c 	bl	8001bbc <HAL_DMA_Abort>
 80018c4:	6822      	ldr	r2, [r4, #0]
 80018c6:	6813      	ldr	r3, [r2, #0]
 80018c8:	f423 5300 	bic.w	r3, r3, #8192	@ 0x2000
 80018cc:	6013      	str	r3, [r2, #0]
 80018ce:	2000      	movs	r0, #0
 80018d0:	bd38      	pop	{r3, r4, r5, pc}
 80018d2:	68e0      	ldr	r0, [r4, #12]
 80018d4:	f000 f972 	bl	8001bbc <HAL_DMA_Abort>
 80018d8:	6822      	ldr	r2, [r4, #0]
 80018da:	6813      	ldr	r3, [r2, #0]
 80018dc:	f023 5300 	bic.w	r3, r3, #536870912	@ 0x20000000
 80018e0:	e7f4      	b.n	80018cc <HAL_DAC_Stop_DMA+0x34>

080018e2 <DAC_DMAConvCpltCh1>:
 80018e2:	b510      	push	{r4, lr}
 80018e4:	6a84      	ldr	r4, [r0, #40]	@ 0x28
 80018e6:	4620      	mov	r0, r4
 80018e8:	f7ff f9b0 	bl	8000c4c <HAL_DAC_ConvCpltCallbackCh1>
 80018ec:	2301      	movs	r3, #1
 80018ee:	7123      	strb	r3, [r4, #4]
 80018f0:	bd10      	pop	{r4, pc}

080018f2 <HAL_DAC_ConvHalfCpltCallbackCh1>:
 80018f2:	4770      	bx	lr

080018f4 <DAC_DMAHalfConvCpltCh1>:
 80018f4:	b508      	push	{r3, lr}
 80018f6:	6a80      	ldr	r0, [r0, #40]	@ 0x28
 80018f8:	f7ff fffb 	bl	80018f2 <HAL_DAC_ConvHalfCpltCallbackCh1>
 80018fc:	bd08      	pop	{r3, pc}

080018fe <HAL_DAC_ErrorCallbackCh1>:
 80018fe:	4770      	bx	lr

08001900 <DAC_DMAErrorCh1>:
 8001900:	b510      	push	{r4, lr}
 8001902:	6a84      	ldr	r4, [r0, #40]	@ 0x28
 8001904:	6923      	ldr	r3, [r4, #16]
 8001906:	f043 0304 	orr.w	r3, r3, #4
 800190a:	6123      	str	r3, [r4, #16]
 800190c:	4620      	mov	r0, r4
 800190e:	f7ff fff6 	bl	80018fe <HAL_DAC_ErrorCallbackCh1>
 8001912:	2301      	movs	r3, #1
 8001914:	7123      	strb	r3, [r4, #4]
 8001916:	bd10      	pop	{r4, pc}

08001918 <HAL_DAC_ConfigChannel>:
 8001918:	b5f8      	push	{r3, r4, r5, r6, r7, lr}
 800191a:	7943      	ldrb	r3, [r0, #5]
 800191c:	2b01      	cmp	r3, #1
 800191e:	4604      	mov	r4, r0
 8001920:	460d      	mov	r5, r1
 8001922:	4616      	mov	r6, r2
 8001924:	f04f 0002 	mov.w	r0, #2
 8001928:	d024      	beq.n	8001974 <HAL_DAC_ConfigChannel+0x5c>
 800192a:	2301      	movs	r3, #1
 800192c:	7163      	strb	r3, [r4, #5]
 800192e:	7120      	strb	r0, [r4, #4]
 8001930:	680b      	ldr	r3, [r1, #0]
 8001932:	2b04      	cmp	r3, #4
 8001934:	d13f      	bne.n	80019b6 <HAL_DAC_ConfigChannel+0x9e>
 8001936:	f7ff feaf 	bl	8001698 <HAL_GetTick>
 800193a:	4607      	mov	r7, r0
 800193c:	b1de      	cbz	r6, 8001976 <HAL_DAC_ConfigChannel+0x5e>
 800193e:	6823      	ldr	r3, [r4, #0]
 8001940:	6b5b      	ldr	r3, [r3, #52]	@ 0x34
 8001942:	2b00      	cmp	r3, #0
 8001944:	db70      	blt.n	8001a28 <HAL_DAC_ConfigChannel+0x110>
 8001946:	2001      	movs	r0, #1
 8001948:	f7ff feac 	bl	80016a4 <HAL_Delay>
 800194c:	6823      	ldr	r3, [r4, #0]
 800194e:	69aa      	ldr	r2, [r5, #24]
 8001950:	645a      	str	r2, [r3, #68]	@ 0x44
 8001952:	e01a      	b.n	800198a <HAL_DAC_ConfigChannel+0x72>
 8001954:	f7ff fea0 	bl	8001698 <HAL_GetTick>
 8001958:	1bc0      	subs	r0, r0, r7
 800195a:	2801      	cmp	r0, #1
 800195c:	d90b      	bls.n	8001976 <HAL_DAC_ConfigChannel+0x5e>
 800195e:	6823      	ldr	r3, [r4, #0]
 8001960:	6b5b      	ldr	r3, [r3, #52]	@ 0x34
 8001962:	041a      	lsls	r2, r3, #16
 8001964:	d507      	bpl.n	8001976 <HAL_DAC_ConfigChannel+0x5e>
 8001966:	6923      	ldr	r3, [r4, #16]
 8001968:	f043 0308 	orr.w	r3, r3, #8
 800196c:	6123      	str	r3, [r4, #16]
 800196e:	2303      	movs	r3, #3
 8001970:	7123      	strb	r3, [r4, #4]
 8001972:	2003      	movs	r0, #3
 8001974:	bdf8      	pop	{r3, r4, r5, r6, r7, pc}
 8001976:	6823      	ldr	r3, [r4, #0]
 8001978:	6b5b      	ldr	r3, [r3, #52]	@ 0x34
 800197a:	041b      	lsls	r3, r3, #16
 800197c:	d4ea      	bmi.n	8001954 <HAL_DAC_ConfigChannel+0x3c>
 800197e:	2001      	movs	r0, #1
 8001980:	f7ff fe90 	bl	80016a4 <HAL_Delay>
 8001984:	6823      	ldr	r3, [r4, #0]
 8001986:	69aa      	ldr	r2, [r5, #24]
 8001988:	641a      	str	r2, [r3, #64]	@ 0x40
 800198a:	6822      	ldr	r2, [r4, #0]
 800198c:	f006 0110 	and.w	r1, r6, #16
 8001990:	6c93      	ldr	r3, [r2, #72]	@ 0x48
 8001992:	f240 30ff 	movw	r0, #1023	@ 0x3ff
 8001996:	4088      	lsls	r0, r1
 8001998:	ea23 0300 	bic.w	r3, r3, r0
 800199c:	69e8      	ldr	r0, [r5, #28]
 800199e:	4088      	lsls	r0, r1
 80019a0:	4303      	orrs	r3, r0
 80019a2:	6493      	str	r3, [r2, #72]	@ 0x48
 80019a4:	6cd3      	ldr	r3, [r2, #76]	@ 0x4c
 80019a6:	20ff      	movs	r0, #255	@ 0xff
 80019a8:	4088      	lsls	r0, r1
 80019aa:	ea23 0300 	bic.w	r3, r3, r0
 80019ae:	6a28      	ldr	r0, [r5, #32]
 80019b0:	4088      	lsls	r0, r1
 80019b2:	4303      	orrs	r3, r0
 80019b4:	64d3      	str	r3, [r2, #76]	@ 0x4c
 80019b6:	6929      	ldr	r1, [r5, #16]
 80019b8:	6823      	ldr	r3, [r4, #0]
 80019ba:	2901      	cmp	r1, #1
 80019bc:	f006 0210 	and.w	r2, r6, #16
 80019c0:	d108      	bne.n	80019d4 <HAL_DAC_ConfigChannel+0xbc>
 80019c2:	6b98      	ldr	r0, [r3, #56]	@ 0x38
 80019c4:	211f      	movs	r1, #31
 80019c6:	4091      	lsls	r1, r2
 80019c8:	ea20 0001 	bic.w	r0, r0, r1
 80019cc:	6969      	ldr	r1, [r5, #20]
 80019ce:	4091      	lsls	r1, r2
 80019d0:	4301      	orrs	r1, r0
 80019d2:	6399      	str	r1, [r3, #56]	@ 0x38
 80019d4:	6bd8      	ldr	r0, [r3, #60]	@ 0x3c
 80019d6:	68ae      	ldr	r6, [r5, #8]
 80019d8:	2107      	movs	r1, #7
 80019da:	4091      	lsls	r1, r2
 80019dc:	ea20 0001 	bic.w	r0, r0, r1
 80019e0:	6829      	ldr	r1, [r5, #0]
 80019e2:	4331      	orrs	r1, r6
 80019e4:	68ee      	ldr	r6, [r5, #12]
 80019e6:	4331      	orrs	r1, r6
 80019e8:	4091      	lsls	r1, r2
 80019ea:	4301      	orrs	r1, r0
 80019ec:	63d9      	str	r1, [r3, #60]	@ 0x3c
 80019ee:	6819      	ldr	r1, [r3, #0]
 80019f0:	f44f 4080 	mov.w	r0, #16384	@ 0x4000
 80019f4:	4090      	lsls	r0, r2
 80019f6:	ea21 0100 	bic.w	r1, r1, r0
 80019fa:	6019      	str	r1, [r3, #0]
 80019fc:	6818      	ldr	r0, [r3, #0]
 80019fe:	f640 71fc 	movw	r1, #4092	@ 0xffc
 8001a02:	4091      	lsls	r1, r2
 8001a04:	ea20 0001 	bic.w	r0, r0, r1
 8001a08:	6869      	ldr	r1, [r5, #4]
 8001a0a:	4091      	lsls	r1, r2
 8001a0c:	4301      	orrs	r1, r0
 8001a0e:	6019      	str	r1, [r3, #0]
 8001a10:	6819      	ldr	r1, [r3, #0]
 8001a12:	20c0      	movs	r0, #192	@ 0xc0
 8001a14:	fa00 f202 	lsl.w	r2, r0, r2
 8001a18:	ea21 0202 	bic.w	r2, r1, r2
 8001a1c:	601a      	str	r2, [r3, #0]
 8001a1e:	2000      	movs	r0, #0
 8001a20:	2301      	movs	r3, #1
 8001a22:	7123      	strb	r3, [r4, #4]
 8001a24:	7160      	strb	r0, [r4, #5]
 8001a26:	e7a5      	b.n	8001974 <HAL_DAC_ConfigChannel+0x5c>
 8001a28:	f7ff fe36 	bl	8001698 <HAL_GetTick>
 8001a2c:	1bc0      	subs	r0, r0, r7
 8001a2e:	2801      	cmp	r0, #1
 8001a30:	d985      	bls.n	800193e <HAL_DAC_ConfigChannel+0x26>
 8001a32:	6823      	ldr	r3, [r4, #0]
 8001a34:	6b5b      	ldr	r3, [r3, #52]	@ 0x34
 8001a36:	2b00      	cmp	r3, #0
 8001a38:	da81      	bge.n	800193e <HAL_DAC_ConfigChannel+0x26>
 8001a3a:	e794      	b.n	8001966 <HAL_DAC_ConfigChannel+0x4e>

08001a3c <HAL_DACEx_ConvCpltCallbackCh2>:
 8001a3c:	4770      	bx	lr

08001a3e <HAL_DACEx_ConvHalfCpltCallbackCh2>:
 8001a3e:	4770      	bx	lr

08001a40 <HAL_DACEx_ErrorCallbackCh2>:
 8001a40:	4770      	bx	lr

08001a42 <DAC_DMAConvCpltCh2>:
 8001a42:	b510      	push	{r4, lr}
 8001a44:	6a84      	ldr	r4, [r0, #40]	@ 0x28
 8001a46:	4620      	mov	r0, r4
 8001a48:	f7ff fff8 	bl	8001a3c <HAL_DACEx_ConvCpltCallbackCh2>
 8001a4c:	2301      	movs	r3, #1
 8001a4e:	7123      	strb	r3, [r4, #4]
 8001a50:	bd10      	pop	{r4, pc}

08001a52 <DAC_DMAHalfConvCpltCh2>:
 8001a52:	b508      	push	{r3, lr}
 8001a54:	6a80      	ldr	r0, [r0, #40]	@ 0x28
 8001a56:	f7ff fff2 	bl	8001a3e <HAL_DACEx_ConvHalfCpltCallbackCh2>
 8001a5a:	bd08      	pop	{r3, pc}

08001a5c <DAC_DMAErrorCh2>:
 8001a5c:	b510      	push	{r4, lr}
 8001a5e:	6a84      	ldr	r4, [r0, #40]	@ 0x28
 8001a60:	6923      	ldr	r3, [r4, #16]
 8001a62:	f043 0304 	orr.w	r3, r3, #4
 8001a66:	6123      	str	r3, [r4, #16]
 8001a68:	4620      	mov	r0, r4
 8001a6a:	f7ff ffe9 	bl	8001a40 <HAL_DACEx_ErrorCallbackCh2>
 8001a6e:	2301      	movs	r3, #1
 8001a70:	7123      	strb	r3, [r4, #4]
 8001a72:	bd10      	pop	{r4, pc}

08001a74 <HAL_DMA_Init>:
 8001a74:	b5f0      	push	{r4, r5, r6, r7, lr}
 8001a76:	4603      	mov	r3, r0
 8001a78:	2800      	cmp	r0, #0
 8001a7a:	d054      	beq.n	8001b26 <HAL_DMA_Init+0xb2>
 8001a7c:	6804      	ldr	r4, [r0, #0]
 8001a7e:	4a2b      	ldr	r2, [pc, #172]	@ (8001b2c <HAL_DMA_Init+0xb8>)
 8001a80:	4294      	cmp	r4, r2
 8001a82:	f04f 0114 	mov.w	r1, #20
 8001a86:	d83c      	bhi.n	8001b02 <HAL_DMA_Init+0x8e>
 8001a88:	4a29      	ldr	r2, [pc, #164]	@ (8001b30 <HAL_DMA_Init+0xbc>)
 8001a8a:	482a      	ldr	r0, [pc, #168]	@ (8001b34 <HAL_DMA_Init+0xc0>)
 8001a8c:	4422      	add	r2, r4
 8001a8e:	fbb2 f2f1 	udiv	r2, r2, r1
 8001a92:	0092      	lsls	r2, r2, #2
 8001a94:	2102      	movs	r1, #2
 8001a96:	f883 1025 	strb.w	r1, [r3, #37]	@ 0x25
 8001a9a:	e9d3 6102 	ldrd	r6, r1, [r3, #8]
 8001a9e:	691f      	ldr	r7, [r3, #16]
 8001aa0:	6825      	ldr	r5, [r4, #0]
 8001aa2:	4331      	orrs	r1, r6
 8001aa4:	4339      	orrs	r1, r7
 8001aa6:	695f      	ldr	r7, [r3, #20]
 8001aa8:	4339      	orrs	r1, r7
 8001aaa:	699f      	ldr	r7, [r3, #24]
 8001aac:	4339      	orrs	r1, r7
 8001aae:	69df      	ldr	r7, [r3, #28]
 8001ab0:	4339      	orrs	r1, r7
 8001ab2:	6a1f      	ldr	r7, [r3, #32]
 8001ab4:	f36f 150e 	bfc	r5, #4, #11
 8001ab8:	4339      	orrs	r1, r7
 8001aba:	4329      	orrs	r1, r5
 8001abc:	f5b6 4f80 	cmp.w	r6, #16384	@ 0x4000
 8001ac0:	e9c3 0210 	strd	r0, r2, [r3, #64]	@ 0x40
 8001ac4:	6021      	str	r1, [r4, #0]
 8001ac6:	d014      	beq.n	8001af2 <HAL_DMA_Init+0x7e>
 8001ac8:	685c      	ldr	r4, [r3, #4]
 8001aca:	f002 021c 	and.w	r2, r2, #28
 8001ace:	210f      	movs	r1, #15
 8001ad0:	4091      	lsls	r1, r2
 8001ad2:	4094      	lsls	r4, r2
 8001ad4:	4a17      	ldr	r2, [pc, #92]	@ (8001b34 <HAL_DMA_Init+0xc0>)
 8001ad6:	4290      	cmp	r0, r2
 8001ad8:	ea6f 0101 	mvn.w	r1, r1
 8001adc:	d118      	bne.n	8001b10 <HAL_DMA_Init+0x9c>
 8001ade:	f8d0 20a8 	ldr.w	r2, [r0, #168]	@ 0xa8
 8001ae2:	400a      	ands	r2, r1
 8001ae4:	f8c0 20a8 	str.w	r2, [r0, #168]	@ 0xa8
 8001ae8:	f8d0 20a8 	ldr.w	r2, [r0, #168]	@ 0xa8
 8001aec:	4322      	orrs	r2, r4
 8001aee:	f8c0 20a8 	str.w	r2, [r0, #168]	@ 0xa8
 8001af2:	2000      	movs	r0, #0
 8001af4:	2201      	movs	r2, #1
 8001af6:	63d8      	str	r0, [r3, #60]	@ 0x3c
 8001af8:	f883 0024 	strb.w	r0, [r3, #36]	@ 0x24
 8001afc:	f883 2025 	strb.w	r2, [r3, #37]	@ 0x25
 8001b00:	bdf0      	pop	{r4, r5, r6, r7, pc}
 8001b02:	4a0d      	ldr	r2, [pc, #52]	@ (8001b38 <HAL_DMA_Init+0xc4>)
 8001b04:	480d      	ldr	r0, [pc, #52]	@ (8001b3c <HAL_DMA_Init+0xc8>)
 8001b06:	4422      	add	r2, r4
 8001b08:	fbb2 f2f1 	udiv	r2, r2, r1
 8001b0c:	0092      	lsls	r2, r2, #2
 8001b0e:	e7c1      	b.n	8001a94 <HAL_DMA_Init+0x20>
 8001b10:	f8d2 04a8 	ldr.w	r0, [r2, #1192]	@ 0x4a8
 8001b14:	4001      	ands	r1, r0
 8001b16:	f8c2 14a8 	str.w	r1, [r2, #1192]	@ 0x4a8
 8001b1a:	f8d2 14a8 	ldr.w	r1, [r2, #1192]	@ 0x4a8
 8001b1e:	4321      	orrs	r1, r4
 8001b20:	f8c2 14a8 	str.w	r1, [r2, #1192]	@ 0x4a8
 8001b24:	e7e5      	b.n	8001af2 <HAL_DMA_Init+0x7e>
 8001b26:	2001      	movs	r0, #1
 8001b28:	e7ea      	b.n	8001b00 <HAL_DMA_Init+0x8c>
 8001b2a:	bf00      	nop
 8001b2c:	40020407 	.word	0x40020407
 8001b30:	bffdfff8 	.word	0xbffdfff8
 8001b34:	40020000 	.word	0x40020000
 8001b38:	bffdfbf8 	.word	0xbffdfbf8
 8001b3c:	40020400 	.word	0x40020400

08001b40 <HAL_DMA_Start_IT>:
 8001b40:	b5f0      	push	{r4, r5, r6, r7, lr}
 8001b42:	f890 4024 	ldrb.w	r4, [r0, #36]	@ 0x24
 8001b46:	2c01      	cmp	r4, #1
 8001b48:	d036      	beq.n	8001bb8 <HAL_DMA_Start_IT+0x78>
 8001b4a:	2401      	movs	r4, #1
 8001b4c:	f880 4024 	strb.w	r4, [r0, #36]	@ 0x24
 8001b50:	f890 4025 	ldrb.w	r4, [r0, #37]	@ 0x25
 8001b54:	2c01      	cmp	r4, #1
 8001b56:	b2e5      	uxtb	r5, r4
 8001b58:	f04f 0400 	mov.w	r4, #0
 8001b5c:	d12a      	bne.n	8001bb4 <HAL_DMA_Start_IT+0x74>
 8001b5e:	2602      	movs	r6, #2
 8001b60:	f880 6025 	strb.w	r6, [r0, #37]	@ 0x25
 8001b64:	63c4      	str	r4, [r0, #60]	@ 0x3c
 8001b66:	6804      	ldr	r4, [r0, #0]
 8001b68:	6826      	ldr	r6, [r4, #0]
 8001b6a:	f026 0601 	bic.w	r6, r6, #1
 8001b6e:	6026      	str	r6, [r4, #0]
 8001b70:	e9d0 6710 	ldrd	r6, r7, [r0, #64]	@ 0x40
 8001b74:	f007 071c 	and.w	r7, r7, #28
 8001b78:	40bd      	lsls	r5, r7
 8001b7a:	6075      	str	r5, [r6, #4]
 8001b7c:	6063      	str	r3, [r4, #4]
 8001b7e:	6883      	ldr	r3, [r0, #8]
 8001b80:	2b10      	cmp	r3, #16
 8001b82:	6b03      	ldr	r3, [r0, #48]	@ 0x30
 8001b84:	bf0b      	itete	eq
 8001b86:	60a2      	streq	r2, [r4, #8]
 8001b88:	60a1      	strne	r1, [r4, #8]
 8001b8a:	60e1      	streq	r1, [r4, #12]
 8001b8c:	60e2      	strne	r2, [r4, #12]
 8001b8e:	b14b      	cbz	r3, 8001ba4 <HAL_DMA_Start_IT+0x64>
 8001b90:	6823      	ldr	r3, [r4, #0]
 8001b92:	f043 030e 	orr.w	r3, r3, #14
 8001b96:	6023      	str	r3, [r4, #0]
 8001b98:	6823      	ldr	r3, [r4, #0]
 8001b9a:	f043 0301 	orr.w	r3, r3, #1
 8001b9e:	6023      	str	r3, [r4, #0]
 8001ba0:	2000      	movs	r0, #0
 8001ba2:	bdf0      	pop	{r4, r5, r6, r7, pc}
 8001ba4:	6823      	ldr	r3, [r4, #0]
 8001ba6:	f023 0304 	bic.w	r3, r3, #4
 8001baa:	6023      	str	r3, [r4, #0]
 8001bac:	6823      	ldr	r3, [r4, #0]
 8001bae:	f043 030a 	orr.w	r3, r3, #10
 8001bb2:	e7f0      	b.n	8001b96 <HAL_DMA_Start_IT+0x56>
 8001bb4:	f880 4024 	strb.w	r4, [r0, #36]	@ 0x24
 8001bb8:	2002      	movs	r0, #2
 8001bba:	e7f2      	b.n	8001ba2 <HAL_DMA_Start_IT+0x62>

08001bbc <HAL_DMA_Abort>:
 8001bbc:	f890 2025 	ldrb.w	r2, [r0, #37]	@ 0x25
 8001bc0:	2a02      	cmp	r2, #2
 8001bc2:	4603      	mov	r3, r0
 8001bc4:	d006      	beq.n	8001bd4 <HAL_DMA_Abort+0x18>
 8001bc6:	2204      	movs	r2, #4
 8001bc8:	63c2      	str	r2, [r0, #60]	@ 0x3c
 8001bca:	2001      	movs	r0, #1
 8001bcc:	2200      	movs	r2, #0
 8001bce:	f883 2024 	strb.w	r2, [r3, #36]	@ 0x24
 8001bd2:	4770      	bx	lr
 8001bd4:	6802      	ldr	r2, [r0, #0]
 8001bd6:	6811      	ldr	r1, [r2, #0]
 8001bd8:	f021 010e 	bic.w	r1, r1, #14
 8001bdc:	6011      	str	r1, [r2, #0]
 8001bde:	6811      	ldr	r1, [r2, #0]
 8001be0:	f021 0101 	bic.w	r1, r1, #1
 8001be4:	6011      	str	r1, [r2, #0]
 8001be6:	e9d0 0210 	ldrd	r0, r2, [r0, #64]	@ 0x40
 8001bea:	2101      	movs	r1, #1
 8001bec:	f002 021c 	and.w	r2, r2, #28
 8001bf0:	fa01 f202 	lsl.w	r2, r1, r2
 8001bf4:	6042      	str	r2, [r0, #4]
 8001bf6:	f883 1025 	strb.w	r1, [r3, #37]	@ 0x25
 8001bfa:	2000      	movs	r0, #0
 8001bfc:	e7e6      	b.n	8001bcc <HAL_DMA_Abort+0x10>

08001bfe <HAL_DMA_IRQHandler>:
 8001bfe:	6c01      	ldr	r1, [r0, #64]	@ 0x40
 8001c00:	6c42      	ldr	r2, [r0, #68]	@ 0x44
 8001c02:	6803      	ldr	r3, [r0, #0]
 8001c04:	b470      	push	{r4, r5, r6}
 8001c06:	f002 021c 	and.w	r2, r2, #28
 8001c0a:	680e      	ldr	r6, [r1, #0]
 8001c0c:	681d      	ldr	r5, [r3, #0]
 8001c0e:	2404      	movs	r4, #4
 8001c10:	4094      	lsls	r4, r2
 8001c12:	4234      	tst	r4, r6
 8001c14:	d00e      	beq.n	8001c34 <HAL_DMA_IRQHandler+0x36>
 8001c16:	f015 0f04 	tst.w	r5, #4
 8001c1a:	d00b      	beq.n	8001c34 <HAL_DMA_IRQHandler+0x36>
 8001c1c:	681a      	ldr	r2, [r3, #0]
 8001c1e:	0692      	lsls	r2, r2, #26
 8001c20:	bf5e      	ittt	pl
 8001c22:	681a      	ldrpl	r2, [r3, #0]
 8001c24:	f022 0204 	bicpl.w	r2, r2, #4
 8001c28:	601a      	strpl	r2, [r3, #0]
 8001c2a:	6b03      	ldr	r3, [r0, #48]	@ 0x30
 8001c2c:	604c      	str	r4, [r1, #4]
 8001c2e:	b373      	cbz	r3, 8001c8e <HAL_DMA_IRQHandler+0x90>
 8001c30:	bc70      	pop	{r4, r5, r6}
 8001c32:	4718      	bx	r3
 8001c34:	2402      	movs	r4, #2
 8001c36:	4094      	lsls	r4, r2
 8001c38:	4234      	tst	r4, r6
 8001c3a:	d012      	beq.n	8001c62 <HAL_DMA_IRQHandler+0x64>
 8001c3c:	f015 0f02 	tst.w	r5, #2
 8001c40:	d00f      	beq.n	8001c62 <HAL_DMA_IRQHandler+0x64>
 8001c42:	681a      	ldr	r2, [r3, #0]
 8001c44:	0695      	lsls	r5, r2, #26
 8001c46:	d406      	bmi.n	8001c56 <HAL_DMA_IRQHandler+0x58>
 8001c48:	681a      	ldr	r2, [r3, #0]
 8001c4a:	f022 020a 	bic.w	r2, r2, #10
 8001c4e:	601a      	str	r2, [r3, #0]
 8001c50:	2301      	movs	r3, #1
 8001c52:	f880 3025 	strb.w	r3, [r0, #37]	@ 0x25
 8001c56:	2300      	movs	r3, #0
 8001c58:	604c      	str	r4, [r1, #4]
 8001c5a:	f880 3024 	strb.w	r3, [r0, #36]	@ 0x24
 8001c5e:	6ac3      	ldr	r3, [r0, #44]	@ 0x2c
 8001c60:	e7e5      	b.n	8001c2e <HAL_DMA_IRQHandler+0x30>
 8001c62:	2408      	movs	r4, #8
 8001c64:	4094      	lsls	r4, r2
 8001c66:	4234      	tst	r4, r6
 8001c68:	d011      	beq.n	8001c8e <HAL_DMA_IRQHandler+0x90>
 8001c6a:	072c      	lsls	r4, r5, #28
 8001c6c:	d50f      	bpl.n	8001c8e <HAL_DMA_IRQHandler+0x90>
 8001c6e:	681c      	ldr	r4, [r3, #0]
 8001c70:	f024 040e 	bic.w	r4, r4, #14
 8001c74:	601c      	str	r4, [r3, #0]
 8001c76:	2301      	movs	r3, #1
 8001c78:	fa03 f202 	lsl.w	r2, r3, r2
 8001c7c:	604a      	str	r2, [r1, #4]
 8001c7e:	63c3      	str	r3, [r0, #60]	@ 0x3c
 8001c80:	f880 3025 	strb.w	r3, [r0, #37]	@ 0x25
 8001c84:	2300      	movs	r3, #0
 8001c86:	f880 3024 	strb.w	r3, [r0, #36]	@ 0x24
 8001c8a:	6b43      	ldr	r3, [r0, #52]	@ 0x34
 8001c8c:	e7cf      	b.n	8001c2e <HAL_DMA_IRQHandler+0x30>
 8001c8e:	bc70      	pop	{r4, r5, r6}
 8001c90:	4770      	bx	lr
	...

08001c94 <HAL_GPIO_Init>:
 8001c94:	e92d 4ff7 	stmdb	sp!, {r0, r1, r2, r4, r5, r6, r7, r8, r9, sl, fp, lr}
 8001c98:	f8df 91a8 	ldr.w	r9, [pc, #424]	@ 8001e44 <HAL_GPIO_Init+0x1b0>
 8001c9c:	4c67      	ldr	r4, [pc, #412]	@ (8001e3c <HAL_GPIO_Init+0x1a8>)
 8001c9e:	2300      	movs	r3, #0
 8001ca0:	680a      	ldr	r2, [r1, #0]
 8001ca2:	fa32 f503 	lsrs.w	r5, r2, r3
 8001ca6:	d102      	bne.n	8001cae <HAL_GPIO_Init+0x1a>
 8001ca8:	b003      	add	sp, #12
 8001caa:	e8bd 8ff0 	ldmia.w	sp!, {r4, r5, r6, r7, r8, r9, sl, fp, pc}
 8001cae:	2501      	movs	r5, #1
 8001cb0:	fa05 f803 	lsl.w	r8, r5, r3
 8001cb4:	ea18 0202 	ands.w	r2, r8, r2
 8001cb8:	f000 80b1 	beq.w	8001e1e <HAL_GPIO_Init+0x18a>
 8001cbc:	684d      	ldr	r5, [r1, #4]
 8001cbe:	2703      	movs	r7, #3
 8001cc0:	f005 0603 	and.w	r6, r5, #3
 8001cc4:	ea4f 0e43 	mov.w	lr, r3, lsl #1
 8001cc8:	fa07 fc0e 	lsl.w	ip, r7, lr
 8001ccc:	1e77      	subs	r7, r6, #1
 8001cce:	2f01      	cmp	r7, #1
 8001cd0:	ea6f 0c0c 	mvn.w	ip, ip
 8001cd4:	d834      	bhi.n	8001d40 <HAL_GPIO_Init+0xac>
 8001cd6:	6887      	ldr	r7, [r0, #8]
 8001cd8:	ea07 0a0c 	and.w	sl, r7, ip
 8001cdc:	68cf      	ldr	r7, [r1, #12]
 8001cde:	fa07 f70e 	lsl.w	r7, r7, lr
 8001ce2:	ea47 070a 	orr.w	r7, r7, sl
 8001ce6:	6087      	str	r7, [r0, #8]
 8001ce8:	6847      	ldr	r7, [r0, #4]
 8001cea:	ea27 0808 	bic.w	r8, r7, r8
 8001cee:	f3c5 1700 	ubfx	r7, r5, #4, #1
 8001cf2:	409f      	lsls	r7, r3
 8001cf4:	ea47 0708 	orr.w	r7, r7, r8
 8001cf8:	6047      	str	r7, [r0, #4]
 8001cfa:	68c7      	ldr	r7, [r0, #12]
 8001cfc:	ea07 080c 	and.w	r8, r7, ip
 8001d00:	688f      	ldr	r7, [r1, #8]
 8001d02:	fa07 f70e 	lsl.w	r7, r7, lr
 8001d06:	ea47 0708 	orr.w	r7, r7, r8
 8001d0a:	2e02      	cmp	r6, #2
 8001d0c:	60c7      	str	r7, [r0, #12]
 8001d0e:	d122      	bne.n	8001d56 <HAL_GPIO_Init+0xc2>
 8001d10:	ea4f 08d3 	mov.w	r8, r3, lsr #3
 8001d14:	eb00 0888 	add.w	r8, r0, r8, lsl #2
 8001d18:	f003 0a07 	and.w	sl, r3, #7
 8001d1c:	f8d8 7020 	ldr.w	r7, [r8, #32]
 8001d20:	ea4f 0a8a 	mov.w	sl, sl, lsl #2
 8001d24:	f04f 0b0f 	mov.w	fp, #15
 8001d28:	fa0b fb0a 	lsl.w	fp, fp, sl
 8001d2c:	ea27 0b0b 	bic.w	fp, r7, fp
 8001d30:	690f      	ldr	r7, [r1, #16]
 8001d32:	fa07 f70a 	lsl.w	r7, r7, sl
 8001d36:	ea47 070b 	orr.w	r7, r7, fp
 8001d3a:	f8c8 7020 	str.w	r7, [r8, #32]
 8001d3e:	e00a      	b.n	8001d56 <HAL_GPIO_Init+0xc2>
 8001d40:	2e03      	cmp	r6, #3
 8001d42:	d1da      	bne.n	8001cfa <HAL_GPIO_Init+0x66>
 8001d44:	6ac7      	ldr	r7, [r0, #44]	@ 0x2c
 8001d46:	ea27 0808 	bic.w	r8, r7, r8
 8001d4a:	f3c5 07c0 	ubfx	r7, r5, #3, #1
 8001d4e:	409f      	lsls	r7, r3
 8001d50:	ea47 0708 	orr.w	r7, r7, r8
 8001d54:	62c7      	str	r7, [r0, #44]	@ 0x2c
 8001d56:	6807      	ldr	r7, [r0, #0]
 8001d58:	fa06 f60e 	lsl.w	r6, r6, lr
 8001d5c:	ea07 070c 	and.w	r7, r7, ip
 8001d60:	433e      	orrs	r6, r7
 8001d62:	f415 3f40 	tst.w	r5, #196608	@ 0x30000
 8001d66:	6006      	str	r6, [r0, #0]
 8001d68:	d059      	beq.n	8001e1e <HAL_GPIO_Init+0x18a>
 8001d6a:	f8d9 6060 	ldr.w	r6, [r9, #96]	@ 0x60
 8001d6e:	f046 0601 	orr.w	r6, r6, #1
 8001d72:	f8c9 6060 	str.w	r6, [r9, #96]	@ 0x60
 8001d76:	f8d9 6060 	ldr.w	r6, [r9, #96]	@ 0x60
 8001d7a:	f023 0703 	bic.w	r7, r3, #3
 8001d7e:	f107 4780 	add.w	r7, r7, #1073741824	@ 0x40000000
 8001d82:	f006 0601 	and.w	r6, r6, #1
 8001d86:	f507 3780 	add.w	r7, r7, #65536	@ 0x10000
 8001d8a:	9601      	str	r6, [sp, #4]
 8001d8c:	f003 0c03 	and.w	ip, r3, #3
 8001d90:	9e01      	ldr	r6, [sp, #4]
 8001d92:	68be      	ldr	r6, [r7, #8]
 8001d94:	ea4f 0c8c 	mov.w	ip, ip, lsl #2
 8001d98:	f04f 0e0f 	mov.w	lr, #15
 8001d9c:	fa0e fe0c 	lsl.w	lr, lr, ip
 8001da0:	f1b0 4f90 	cmp.w	r0, #1207959552	@ 0x48000000
 8001da4:	ea26 0e0e 	bic.w	lr, r6, lr
 8001da8:	d03b      	beq.n	8001e22 <HAL_GPIO_Init+0x18e>
 8001daa:	4e25      	ldr	r6, [pc, #148]	@ (8001e40 <HAL_GPIO_Init+0x1ac>)
 8001dac:	42b0      	cmp	r0, r6
 8001dae:	d03a      	beq.n	8001e26 <HAL_GPIO_Init+0x192>
 8001db0:	f506 6680 	add.w	r6, r6, #1024	@ 0x400
 8001db4:	42b0      	cmp	r0, r6
 8001db6:	d038      	beq.n	8001e2a <HAL_GPIO_Init+0x196>
 8001db8:	f506 6680 	add.w	r6, r6, #1024	@ 0x400
 8001dbc:	42b0      	cmp	r0, r6
 8001dbe:	d036      	beq.n	8001e2e <HAL_GPIO_Init+0x19a>
 8001dc0:	f506 6680 	add.w	r6, r6, #1024	@ 0x400
 8001dc4:	42b0      	cmp	r0, r6
 8001dc6:	d034      	beq.n	8001e32 <HAL_GPIO_Init+0x19e>
 8001dc8:	f506 6680 	add.w	r6, r6, #1024	@ 0x400
 8001dcc:	42b0      	cmp	r0, r6
 8001dce:	d032      	beq.n	8001e36 <HAL_GPIO_Init+0x1a2>
 8001dd0:	f506 6680 	add.w	r6, r6, #1024	@ 0x400
 8001dd4:	42b0      	cmp	r0, r6
 8001dd6:	bf14      	ite	ne
 8001dd8:	2607      	movne	r6, #7
 8001dda:	2606      	moveq	r6, #6
 8001ddc:	fa06 f60c 	lsl.w	r6, r6, ip
 8001de0:	ea46 060e 	orr.w	r6, r6, lr
 8001de4:	60be      	str	r6, [r7, #8]
 8001de6:	68a6      	ldr	r6, [r4, #8]
 8001de8:	43d7      	mvns	r7, r2
 8001dea:	f415 1f80 	tst.w	r5, #1048576	@ 0x100000
 8001dee:	bf0c      	ite	eq
 8001df0:	403e      	andeq	r6, r7
 8001df2:	4316      	orrne	r6, r2
 8001df4:	60a6      	str	r6, [r4, #8]
 8001df6:	68e6      	ldr	r6, [r4, #12]
 8001df8:	f415 1f00 	tst.w	r5, #2097152	@ 0x200000
 8001dfc:	bf0c      	ite	eq
 8001dfe:	403e      	andeq	r6, r7
 8001e00:	4316      	orrne	r6, r2
 8001e02:	60e6      	str	r6, [r4, #12]
 8001e04:	6866      	ldr	r6, [r4, #4]
 8001e06:	f415 3f00 	tst.w	r5, #131072	@ 0x20000
 8001e0a:	bf0c      	ite	eq
 8001e0c:	403e      	andeq	r6, r7
 8001e0e:	4316      	orrne	r6, r2
 8001e10:	6066      	str	r6, [r4, #4]
 8001e12:	6826      	ldr	r6, [r4, #0]
 8001e14:	03ed      	lsls	r5, r5, #15
 8001e16:	bf54      	ite	pl
 8001e18:	403e      	andpl	r6, r7
 8001e1a:	4316      	orrmi	r6, r2
 8001e1c:	6026      	str	r6, [r4, #0]
 8001e1e:	3301      	adds	r3, #1
 8001e20:	e73e      	b.n	8001ca0 <HAL_GPIO_Init+0xc>
 8001e22:	2600      	movs	r6, #0
 8001e24:	e7da      	b.n	8001ddc <HAL_GPIO_Init+0x148>
 8001e26:	2601      	movs	r6, #1
 8001e28:	e7d8      	b.n	8001ddc <HAL_GPIO_Init+0x148>
 8001e2a:	2602      	movs	r6, #2
 8001e2c:	e7d6      	b.n	8001ddc <HAL_GPIO_Init+0x148>
 8001e2e:	2603      	movs	r6, #3
 8001e30:	e7d4      	b.n	8001ddc <HAL_GPIO_Init+0x148>
 8001e32:	2604      	movs	r6, #4
 8001e34:	e7d2      	b.n	8001ddc <HAL_GPIO_Init+0x148>
 8001e36:	2605      	movs	r6, #5
 8001e38:	e7d0      	b.n	8001ddc <HAL_GPIO_Init+0x148>
 8001e3a:	bf00      	nop
 8001e3c:	40010400 	.word	0x40010400
 8001e40:	48000400 	.word	0x48000400
 8001e44:	40021000 	.word	0x40021000

08001e48 <HAL_GPIO_ReadPin>:
 8001e48:	6903      	ldr	r3, [r0, #16]
 8001e4a:	4219      	tst	r1, r3
 8001e4c:	bf14      	ite	ne
 8001e4e:	2001      	movne	r0, #1
 8001e50:	2000      	moveq	r0, #0
 8001e52:	4770      	bx	lr

08001e54 <HAL_PWREx_GetVoltageRange>:
 8001e54:	4b02      	ldr	r3, [pc, #8]	@ (8001e60 <HAL_PWREx_GetVoltageRange+0xc>)
 8001e56:	6818      	ldr	r0, [r3, #0]
 8001e58:	f400 60c0 	and.w	r0, r0, #1536	@ 0x600
 8001e5c:	4770      	bx	lr
 8001e5e:	bf00      	nop
 8001e60:	40007000 	.word	0x40007000

08001e64 <HAL_PWREx_ControlVoltageScaling>:
 8001e64:	4a17      	ldr	r2, [pc, #92]	@ (8001ec4 <HAL_PWREx_ControlVoltageScaling+0x60>)
 8001e66:	6813      	ldr	r3, [r2, #0]
 8001e68:	f5b0 7f00 	cmp.w	r0, #512	@ 0x200
 8001e6c:	f403 63c0 	and.w	r3, r3, #1536	@ 0x600
 8001e70:	d11b      	bne.n	8001eaa <HAL_PWREx_ControlVoltageScaling+0x46>
 8001e72:	f5b3 7f00 	cmp.w	r3, #512	@ 0x200
 8001e76:	d01b      	beq.n	8001eb0 <HAL_PWREx_ControlVoltageScaling+0x4c>
 8001e78:	6813      	ldr	r3, [r2, #0]
 8001e7a:	f423 63c0 	bic.w	r3, r3, #1536	@ 0x600
 8001e7e:	f443 7300 	orr.w	r3, r3, #512	@ 0x200
 8001e82:	6013      	str	r3, [r2, #0]
 8001e84:	4b10      	ldr	r3, [pc, #64]	@ (8001ec8 <HAL_PWREx_ControlVoltageScaling+0x64>)
 8001e86:	681b      	ldr	r3, [r3, #0]
 8001e88:	2132      	movs	r1, #50	@ 0x32
 8001e8a:	434b      	muls	r3, r1
 8001e8c:	490f      	ldr	r1, [pc, #60]	@ (8001ecc <HAL_PWREx_ControlVoltageScaling+0x68>)
 8001e8e:	fbb3 f3f1 	udiv	r3, r3, r1
 8001e92:	3301      	adds	r3, #1
 8001e94:	6951      	ldr	r1, [r2, #20]
 8001e96:	0549      	lsls	r1, r1, #21
 8001e98:	d500      	bpl.n	8001e9c <HAL_PWREx_ControlVoltageScaling+0x38>
 8001e9a:	b923      	cbnz	r3, 8001ea6 <HAL_PWREx_ControlVoltageScaling+0x42>
 8001e9c:	6953      	ldr	r3, [r2, #20]
 8001e9e:	055b      	lsls	r3, r3, #21
 8001ea0:	d506      	bpl.n	8001eb0 <HAL_PWREx_ControlVoltageScaling+0x4c>
 8001ea2:	2003      	movs	r0, #3
 8001ea4:	4770      	bx	lr
 8001ea6:	3b01      	subs	r3, #1
 8001ea8:	e7f4      	b.n	8001e94 <HAL_PWREx_ControlVoltageScaling+0x30>
 8001eaa:	f5b3 6f80 	cmp.w	r3, #1024	@ 0x400
 8001eae:	d101      	bne.n	8001eb4 <HAL_PWREx_ControlVoltageScaling+0x50>
 8001eb0:	2000      	movs	r0, #0
 8001eb2:	4770      	bx	lr
 8001eb4:	6813      	ldr	r3, [r2, #0]
 8001eb6:	f423 63c0 	bic.w	r3, r3, #1536	@ 0x600
 8001eba:	f443 6380 	orr.w	r3, r3, #1024	@ 0x400
 8001ebe:	6013      	str	r3, [r2, #0]
 8001ec0:	e7f6      	b.n	8001eb0 <HAL_PWREx_ControlVoltageScaling+0x4c>
 8001ec2:	bf00      	nop
 8001ec4:	40007000 	.word	0x40007000
 8001ec8:	20000024 	.word	0x20000024
 8001ecc:	000f4240 	.word	0x000f4240

08001ed0 <RCC_SetFlashLatencyFromMSIRange>:
 8001ed0:	b537      	push	{r0, r1, r2, r4, r5, lr}
 8001ed2:	4d1e      	ldr	r5, [pc, #120]	@ (8001f4c <RCC_SetFlashLatencyFromMSIRange+0x7c>)
 8001ed4:	6dab      	ldr	r3, [r5, #88]	@ 0x58
 8001ed6:	00da      	lsls	r2, r3, #3
 8001ed8:	4604      	mov	r4, r0
 8001eda:	d518      	bpl.n	8001f0e <RCC_SetFlashLatencyFromMSIRange+0x3e>
 8001edc:	f7ff ffba 	bl	8001e54 <HAL_PWREx_GetVoltageRange>
 8001ee0:	f5b0 7f00 	cmp.w	r0, #512	@ 0x200
 8001ee4:	d123      	bne.n	8001f2e <RCC_SetFlashLatencyFromMSIRange+0x5e>
 8001ee6:	2c80      	cmp	r4, #128	@ 0x80
 8001ee8:	d929      	bls.n	8001f3e <RCC_SetFlashLatencyFromMSIRange+0x6e>
 8001eea:	2ca0      	cmp	r4, #160	@ 0xa0
 8001eec:	bf8c      	ite	hi
 8001eee:	2402      	movhi	r4, #2
 8001ef0:	2401      	movls	r4, #1
 8001ef2:	4917      	ldr	r1, [pc, #92]	@ (8001f50 <RCC_SetFlashLatencyFromMSIRange+0x80>)
 8001ef4:	680a      	ldr	r2, [r1, #0]
 8001ef6:	f022 0207 	bic.w	r2, r2, #7
 8001efa:	4322      	orrs	r2, r4
 8001efc:	600a      	str	r2, [r1, #0]
 8001efe:	6808      	ldr	r0, [r1, #0]
 8001f00:	f000 0007 	and.w	r0, r0, #7
 8001f04:	1b00      	subs	r0, r0, r4
 8001f06:	bf18      	it	ne
 8001f08:	2001      	movne	r0, #1
 8001f0a:	b003      	add	sp, #12
 8001f0c:	bd30      	pop	{r4, r5, pc}
 8001f0e:	6dab      	ldr	r3, [r5, #88]	@ 0x58
 8001f10:	f043 5380 	orr.w	r3, r3, #268435456	@ 0x10000000
 8001f14:	65ab      	str	r3, [r5, #88]	@ 0x58
 8001f16:	6dab      	ldr	r3, [r5, #88]	@ 0x58
 8001f18:	f003 5380 	and.w	r3, r3, #268435456	@ 0x10000000
 8001f1c:	9301      	str	r3, [sp, #4]
 8001f1e:	9b01      	ldr	r3, [sp, #4]
 8001f20:	f7ff ff98 	bl	8001e54 <HAL_PWREx_GetVoltageRange>
 8001f24:	6dab      	ldr	r3, [r5, #88]	@ 0x58
 8001f26:	f023 5380 	bic.w	r3, r3, #268435456	@ 0x10000000
 8001f2a:	65ab      	str	r3, [r5, #88]	@ 0x58
 8001f2c:	e7d8      	b.n	8001ee0 <RCC_SetFlashLatencyFromMSIRange+0x10>
 8001f2e:	2c80      	cmp	r4, #128	@ 0x80
 8001f30:	d807      	bhi.n	8001f42 <RCC_SetFlashLatencyFromMSIRange+0x72>
 8001f32:	d008      	beq.n	8001f46 <RCC_SetFlashLatencyFromMSIRange+0x76>
 8001f34:	f1a4 0370 	sub.w	r3, r4, #112	@ 0x70
 8001f38:	425c      	negs	r4, r3
 8001f3a:	415c      	adcs	r4, r3
 8001f3c:	e7d9      	b.n	8001ef2 <RCC_SetFlashLatencyFromMSIRange+0x22>
 8001f3e:	2400      	movs	r4, #0
 8001f40:	e7d7      	b.n	8001ef2 <RCC_SetFlashLatencyFromMSIRange+0x22>
 8001f42:	2403      	movs	r4, #3
 8001f44:	e7d5      	b.n	8001ef2 <RCC_SetFlashLatencyFromMSIRange+0x22>
 8001f46:	2402      	movs	r4, #2
 8001f48:	e7d3      	b.n	8001ef2 <RCC_SetFlashLatencyFromMSIRange+0x22>
 8001f4a:	bf00      	nop
 8001f4c:	40021000 	.word	0x40021000
 8001f50:	40022000 	.word	0x40022000

08001f54 <HAL_RCC_GetSysClockFreq>:
 8001f54:	4b20      	ldr	r3, [pc, #128]	@ (8001fd8 <HAL_RCC_GetSysClockFreq+0x84>)
 8001f56:	689a      	ldr	r2, [r3, #8]
 8001f58:	68d9      	ldr	r1, [r3, #12]
 8001f5a:	f012 020c 	ands.w	r2, r2, #12
 8001f5e:	d005      	beq.n	8001f6c <HAL_RCC_GetSysClockFreq+0x18>
 8001f60:	2a0c      	cmp	r2, #12
 8001f62:	d12c      	bne.n	8001fbe <HAL_RCC_GetSysClockFreq+0x6a>
 8001f64:	f001 0103 	and.w	r1, r1, #3
 8001f68:	2901      	cmp	r1, #1
 8001f6a:	d12f      	bne.n	8001fcc <HAL_RCC_GetSysClockFreq+0x78>
 8001f6c:	6819      	ldr	r1, [r3, #0]
 8001f6e:	481b      	ldr	r0, [pc, #108]	@ (8001fdc <HAL_RCC_GetSysClockFreq+0x88>)
 8001f70:	0709      	lsls	r1, r1, #28
 8001f72:	bf55      	itete	pl
 8001f74:	f8d3 1094 	ldrpl.w	r1, [r3, #148]	@ 0x94
 8001f78:	6819      	ldrmi	r1, [r3, #0]
 8001f7a:	f3c1 2103 	ubfxpl	r1, r1, #8, #4
 8001f7e:	f3c1 1103 	ubfxmi	r1, r1, #4, #4
 8001f82:	f850 0021 	ldr.w	r0, [r0, r1, lsl #2]
 8001f86:	b332      	cbz	r2, 8001fd6 <HAL_RCC_GetSysClockFreq+0x82>
 8001f88:	68da      	ldr	r2, [r3, #12]
 8001f8a:	f002 0203 	and.w	r2, r2, #3
 8001f8e:	2a02      	cmp	r2, #2
 8001f90:	d01e      	beq.n	8001fd0 <HAL_RCC_GetSysClockFreq+0x7c>
 8001f92:	4913      	ldr	r1, [pc, #76]	@ (8001fe0 <HAL_RCC_GetSysClockFreq+0x8c>)
 8001f94:	2a03      	cmp	r2, #3
 8001f96:	bf08      	it	eq
 8001f98:	4608      	moveq	r0, r1
 8001f9a:	68d9      	ldr	r1, [r3, #12]
 8001f9c:	68da      	ldr	r2, [r3, #12]
 8001f9e:	f3c2 2206 	ubfx	r2, r2, #8, #7
 8001fa2:	4342      	muls	r2, r0
 8001fa4:	68d8      	ldr	r0, [r3, #12]
 8001fa6:	f3c0 6041 	ubfx	r0, r0, #25, #2
 8001faa:	f3c1 1102 	ubfx	r1, r1, #4, #3
 8001fae:	3001      	adds	r0, #1
 8001fb0:	3101      	adds	r1, #1
 8001fb2:	0040      	lsls	r0, r0, #1
 8001fb4:	fbb2 f2f1 	udiv	r2, r2, r1
 8001fb8:	fbb2 f0f0 	udiv	r0, r2, r0
 8001fbc:	4770      	bx	lr
 8001fbe:	2a04      	cmp	r2, #4
 8001fc0:	d008      	beq.n	8001fd4 <HAL_RCC_GetSysClockFreq+0x80>
 8001fc2:	2a08      	cmp	r2, #8
 8001fc4:	4806      	ldr	r0, [pc, #24]	@ (8001fe0 <HAL_RCC_GetSysClockFreq+0x8c>)
 8001fc6:	bf18      	it	ne
 8001fc8:	2000      	movne	r0, #0
 8001fca:	4770      	bx	lr
 8001fcc:	2000      	movs	r0, #0
 8001fce:	e7db      	b.n	8001f88 <HAL_RCC_GetSysClockFreq+0x34>
 8001fd0:	4804      	ldr	r0, [pc, #16]	@ (8001fe4 <HAL_RCC_GetSysClockFreq+0x90>)
 8001fd2:	e7e2      	b.n	8001f9a <HAL_RCC_GetSysClockFreq+0x46>
 8001fd4:	4803      	ldr	r0, [pc, #12]	@ (8001fe4 <HAL_RCC_GetSysClockFreq+0x90>)
 8001fd6:	4770      	bx	lr
 8001fd8:	40021000 	.word	0x40021000
 8001fdc:	080049c8 	.word	0x080049c8
 8001fe0:	007a1200 	.word	0x007a1200
 8001fe4:	00f42400 	.word	0x00f42400

08001fe8 <HAL_RCC_OscConfig>:
 8001fe8:	e92d 43f7 	stmdb	sp!, {r0, r1, r2, r4, r5, r6, r7, r8, r9, lr}
 8001fec:	4605      	mov	r5, r0
 8001fee:	b918      	cbnz	r0, 8001ff8 <HAL_RCC_OscConfig+0x10>
 8001ff0:	2001      	movs	r0, #1
 8001ff2:	b003      	add	sp, #12
 8001ff4:	e8bd 83f0 	ldmia.w	sp!, {r4, r5, r6, r7, r8, r9, pc}
 8001ff8:	4c92      	ldr	r4, [pc, #584]	@ (8002244 <HAL_RCC_OscConfig+0x25c>)
 8001ffa:	6803      	ldr	r3, [r0, #0]
 8001ffc:	68a6      	ldr	r6, [r4, #8]
 8001ffe:	68e7      	ldr	r7, [r4, #12]
 8002000:	06d8      	lsls	r0, r3, #27
 8002002:	f006 060c 	and.w	r6, r6, #12
 8002006:	f007 0703 	and.w	r7, r7, #3
 800200a:	d53d      	bpl.n	8002088 <HAL_RCC_OscConfig+0xa0>
 800200c:	b11e      	cbz	r6, 8002016 <HAL_RCC_OscConfig+0x2e>
 800200e:	2e0c      	cmp	r6, #12
 8002010:	d166      	bne.n	80020e0 <HAL_RCC_OscConfig+0xf8>
 8002012:	2f01      	cmp	r7, #1
 8002014:	d164      	bne.n	80020e0 <HAL_RCC_OscConfig+0xf8>
 8002016:	6823      	ldr	r3, [r4, #0]
 8002018:	0799      	lsls	r1, r3, #30
 800201a:	d502      	bpl.n	8002022 <HAL_RCC_OscConfig+0x3a>
 800201c:	69ab      	ldr	r3, [r5, #24]
 800201e:	2b00      	cmp	r3, #0
 8002020:	d0e6      	beq.n	8001ff0 <HAL_RCC_OscConfig+0x8>
 8002022:	6823      	ldr	r3, [r4, #0]
 8002024:	6a28      	ldr	r0, [r5, #32]
 8002026:	071a      	lsls	r2, r3, #28
 8002028:	bf56      	itet	pl
 800202a:	f8d4 3094 	ldrpl.w	r3, [r4, #148]	@ 0x94
 800202e:	6823      	ldrmi	r3, [r4, #0]
 8002030:	091b      	lsrpl	r3, r3, #4
 8002032:	f003 03f0 	and.w	r3, r3, #240	@ 0xf0
 8002036:	4298      	cmp	r0, r3
 8002038:	d93b      	bls.n	80020b2 <HAL_RCC_OscConfig+0xca>
 800203a:	f7ff ff49 	bl	8001ed0 <RCC_SetFlashLatencyFromMSIRange>
 800203e:	2800      	cmp	r0, #0
 8002040:	d1d6      	bne.n	8001ff0 <HAL_RCC_OscConfig+0x8>
 8002042:	6823      	ldr	r3, [r4, #0]
 8002044:	f043 0308 	orr.w	r3, r3, #8
 8002048:	6023      	str	r3, [r4, #0]
 800204a:	6823      	ldr	r3, [r4, #0]
 800204c:	6a2a      	ldr	r2, [r5, #32]
 800204e:	f023 03f0 	bic.w	r3, r3, #240	@ 0xf0
 8002052:	4313      	orrs	r3, r2
 8002054:	6023      	str	r3, [r4, #0]
 8002056:	6863      	ldr	r3, [r4, #4]
 8002058:	69ea      	ldr	r2, [r5, #28]
 800205a:	f423 437f 	bic.w	r3, r3, #65280	@ 0xff00
 800205e:	ea43 2302 	orr.w	r3, r3, r2, lsl #8
 8002062:	6063      	str	r3, [r4, #4]
 8002064:	f7ff ff76 	bl	8001f54 <HAL_RCC_GetSysClockFreq>
 8002068:	68a3      	ldr	r3, [r4, #8]
 800206a:	4a77      	ldr	r2, [pc, #476]	@ (8002248 <HAL_RCC_OscConfig+0x260>)
 800206c:	f3c3 1303 	ubfx	r3, r3, #4, #4
 8002070:	5cd3      	ldrb	r3, [r2, r3]
 8002072:	f003 031f 	and.w	r3, r3, #31
 8002076:	40d8      	lsrs	r0, r3
 8002078:	4b74      	ldr	r3, [pc, #464]	@ (800224c <HAL_RCC_OscConfig+0x264>)
 800207a:	6018      	str	r0, [r3, #0]
 800207c:	4b74      	ldr	r3, [pc, #464]	@ (8002250 <HAL_RCC_OscConfig+0x268>)
 800207e:	6818      	ldr	r0, [r3, #0]
 8002080:	f7ff fac2 	bl	8001608 <HAL_InitTick>
 8002084:	2800      	cmp	r0, #0
 8002086:	d1b4      	bne.n	8001ff2 <HAL_RCC_OscConfig+0xa>
 8002088:	682b      	ldr	r3, [r5, #0]
 800208a:	07d9      	lsls	r1, r3, #31
 800208c:	d45f      	bmi.n	800214e <HAL_RCC_OscConfig+0x166>
 800208e:	682b      	ldr	r3, [r5, #0]
 8002090:	079a      	lsls	r2, r3, #30
 8002092:	f100 809e 	bmi.w	80021d2 <HAL_RCC_OscConfig+0x1ea>
 8002096:	682b      	ldr	r3, [r5, #0]
 8002098:	0719      	lsls	r1, r3, #28
 800209a:	f100 80db 	bmi.w	8002254 <HAL_RCC_OscConfig+0x26c>
 800209e:	682b      	ldr	r3, [r5, #0]
 80020a0:	075a      	lsls	r2, r3, #29
 80020a2:	f100 8101 	bmi.w	80022a8 <HAL_RCC_OscConfig+0x2c0>
 80020a6:	6aab      	ldr	r3, [r5, #40]	@ 0x28
 80020a8:	2b00      	cmp	r3, #0
 80020aa:	f040 816a 	bne.w	8002382 <HAL_RCC_OscConfig+0x39a>
 80020ae:	2000      	movs	r0, #0
 80020b0:	e79f      	b.n	8001ff2 <HAL_RCC_OscConfig+0xa>
 80020b2:	6823      	ldr	r3, [r4, #0]
 80020b4:	f043 0308 	orr.w	r3, r3, #8
 80020b8:	6023      	str	r3, [r4, #0]
 80020ba:	6823      	ldr	r3, [r4, #0]
 80020bc:	f023 03f0 	bic.w	r3, r3, #240	@ 0xf0
 80020c0:	4303      	orrs	r3, r0
 80020c2:	6023      	str	r3, [r4, #0]
 80020c4:	6863      	ldr	r3, [r4, #4]
 80020c6:	69ea      	ldr	r2, [r5, #28]
 80020c8:	f423 437f 	bic.w	r3, r3, #65280	@ 0xff00
 80020cc:	ea43 2302 	orr.w	r3, r3, r2, lsl #8
 80020d0:	6063      	str	r3, [r4, #4]
 80020d2:	2e00      	cmp	r6, #0
 80020d4:	d1c6      	bne.n	8002064 <HAL_RCC_OscConfig+0x7c>
 80020d6:	f7ff fefb 	bl	8001ed0 <RCC_SetFlashLatencyFromMSIRange>
 80020da:	2800      	cmp	r0, #0
 80020dc:	d0c2      	beq.n	8002064 <HAL_RCC_OscConfig+0x7c>
 80020de:	e787      	b.n	8001ff0 <HAL_RCC_OscConfig+0x8>
 80020e0:	69ab      	ldr	r3, [r5, #24]
 80020e2:	b31b      	cbz	r3, 800212c <HAL_RCC_OscConfig+0x144>
 80020e4:	6823      	ldr	r3, [r4, #0]
 80020e6:	f043 0301 	orr.w	r3, r3, #1
 80020ea:	6023      	str	r3, [r4, #0]
 80020ec:	f7ff fad4 	bl	8001698 <HAL_GetTick>
 80020f0:	4680      	mov	r8, r0
 80020f2:	6823      	ldr	r3, [r4, #0]
 80020f4:	079b      	lsls	r3, r3, #30
 80020f6:	d511      	bpl.n	800211c <HAL_RCC_OscConfig+0x134>
 80020f8:	6823      	ldr	r3, [r4, #0]
 80020fa:	f043 0308 	orr.w	r3, r3, #8
 80020fe:	6023      	str	r3, [r4, #0]
 8002100:	6823      	ldr	r3, [r4, #0]
 8002102:	6a2a      	ldr	r2, [r5, #32]
 8002104:	f023 03f0 	bic.w	r3, r3, #240	@ 0xf0
 8002108:	4313      	orrs	r3, r2
 800210a:	6023      	str	r3, [r4, #0]
 800210c:	6863      	ldr	r3, [r4, #4]
 800210e:	69ea      	ldr	r2, [r5, #28]
 8002110:	f423 437f 	bic.w	r3, r3, #65280	@ 0xff00
 8002114:	ea43 2302 	orr.w	r3, r3, r2, lsl #8
 8002118:	6063      	str	r3, [r4, #4]
 800211a:	e7b5      	b.n	8002088 <HAL_RCC_OscConfig+0xa0>
 800211c:	f7ff fabc 	bl	8001698 <HAL_GetTick>
 8002120:	eba0 0008 	sub.w	r0, r0, r8
 8002124:	2802      	cmp	r0, #2
 8002126:	d9e4      	bls.n	80020f2 <HAL_RCC_OscConfig+0x10a>
 8002128:	2003      	movs	r0, #3
 800212a:	e762      	b.n	8001ff2 <HAL_RCC_OscConfig+0xa>
 800212c:	6823      	ldr	r3, [r4, #0]
 800212e:	f023 0301 	bic.w	r3, r3, #1
 8002132:	6023      	str	r3, [r4, #0]
 8002134:	f7ff fab0 	bl	8001698 <HAL_GetTick>
 8002138:	4680      	mov	r8, r0
 800213a:	6823      	ldr	r3, [r4, #0]
 800213c:	0798      	lsls	r0, r3, #30
 800213e:	d5a3      	bpl.n	8002088 <HAL_RCC_OscConfig+0xa0>
 8002140:	f7ff faaa 	bl	8001698 <HAL_GetTick>
 8002144:	eba0 0008 	sub.w	r0, r0, r8
 8002148:	2802      	cmp	r0, #2
 800214a:	d9f6      	bls.n	800213a <HAL_RCC_OscConfig+0x152>
 800214c:	e7ec      	b.n	8002128 <HAL_RCC_OscConfig+0x140>
 800214e:	2e08      	cmp	r6, #8
 8002150:	d003      	beq.n	800215a <HAL_RCC_OscConfig+0x172>
 8002152:	2e0c      	cmp	r6, #12
 8002154:	d108      	bne.n	8002168 <HAL_RCC_OscConfig+0x180>
 8002156:	2f03      	cmp	r7, #3
 8002158:	d106      	bne.n	8002168 <HAL_RCC_OscConfig+0x180>
 800215a:	6823      	ldr	r3, [r4, #0]
 800215c:	039b      	lsls	r3, r3, #14
 800215e:	d596      	bpl.n	800208e <HAL_RCC_OscConfig+0xa6>
 8002160:	686b      	ldr	r3, [r5, #4]
 8002162:	2b00      	cmp	r3, #0
 8002164:	d193      	bne.n	800208e <HAL_RCC_OscConfig+0xa6>
 8002166:	e743      	b.n	8001ff0 <HAL_RCC_OscConfig+0x8>
 8002168:	686b      	ldr	r3, [r5, #4]
 800216a:	f5b3 3f80 	cmp.w	r3, #65536	@ 0x10000
 800216e:	d110      	bne.n	8002192 <HAL_RCC_OscConfig+0x1aa>
 8002170:	6823      	ldr	r3, [r4, #0]
 8002172:	f443 3380 	orr.w	r3, r3, #65536	@ 0x10000
 8002176:	6023      	str	r3, [r4, #0]
 8002178:	f7ff fa8e 	bl	8001698 <HAL_GetTick>
 800217c:	4680      	mov	r8, r0
 800217e:	6823      	ldr	r3, [r4, #0]
 8002180:	0398      	lsls	r0, r3, #14
 8002182:	d484      	bmi.n	800208e <HAL_RCC_OscConfig+0xa6>
 8002184:	f7ff fa88 	bl	8001698 <HAL_GetTick>
 8002188:	eba0 0008 	sub.w	r0, r0, r8
 800218c:	2864      	cmp	r0, #100	@ 0x64
 800218e:	d9f6      	bls.n	800217e <HAL_RCC_OscConfig+0x196>
 8002190:	e7ca      	b.n	8002128 <HAL_RCC_OscConfig+0x140>
 8002192:	f5b3 2fa0 	cmp.w	r3, #327680	@ 0x50000
 8002196:	d104      	bne.n	80021a2 <HAL_RCC_OscConfig+0x1ba>
 8002198:	6823      	ldr	r3, [r4, #0]
 800219a:	f443 2380 	orr.w	r3, r3, #262144	@ 0x40000
 800219e:	6023      	str	r3, [r4, #0]
 80021a0:	e7e6      	b.n	8002170 <HAL_RCC_OscConfig+0x188>
 80021a2:	6822      	ldr	r2, [r4, #0]
 80021a4:	f422 3280 	bic.w	r2, r2, #65536	@ 0x10000
 80021a8:	6022      	str	r2, [r4, #0]
 80021aa:	6822      	ldr	r2, [r4, #0]
 80021ac:	f422 2280 	bic.w	r2, r2, #262144	@ 0x40000
 80021b0:	6022      	str	r2, [r4, #0]
 80021b2:	2b00      	cmp	r3, #0
 80021b4:	d1e0      	bne.n	8002178 <HAL_RCC_OscConfig+0x190>
 80021b6:	f7ff fa6f 	bl	8001698 <HAL_GetTick>
 80021ba:	4680      	mov	r8, r0
 80021bc:	6823      	ldr	r3, [r4, #0]
 80021be:	0399      	lsls	r1, r3, #14
 80021c0:	f57f af65 	bpl.w	800208e <HAL_RCC_OscConfig+0xa6>
 80021c4:	f7ff fa68 	bl	8001698 <HAL_GetTick>
 80021c8:	eba0 0008 	sub.w	r0, r0, r8
 80021cc:	2864      	cmp	r0, #100	@ 0x64
 80021ce:	d9f5      	bls.n	80021bc <HAL_RCC_OscConfig+0x1d4>
 80021d0:	e7aa      	b.n	8002128 <HAL_RCC_OscConfig+0x140>
 80021d2:	2e04      	cmp	r6, #4
 80021d4:	d003      	beq.n	80021de <HAL_RCC_OscConfig+0x1f6>
 80021d6:	2e0c      	cmp	r6, #12
 80021d8:	d110      	bne.n	80021fc <HAL_RCC_OscConfig+0x214>
 80021da:	2f02      	cmp	r7, #2
 80021dc:	d10e      	bne.n	80021fc <HAL_RCC_OscConfig+0x214>
 80021de:	6823      	ldr	r3, [r4, #0]
 80021e0:	055a      	lsls	r2, r3, #21
 80021e2:	d503      	bpl.n	80021ec <HAL_RCC_OscConfig+0x204>
 80021e4:	68eb      	ldr	r3, [r5, #12]
 80021e6:	2b00      	cmp	r3, #0
 80021e8:	f43f af02 	beq.w	8001ff0 <HAL_RCC_OscConfig+0x8>
 80021ec:	6863      	ldr	r3, [r4, #4]
 80021ee:	692a      	ldr	r2, [r5, #16]
 80021f0:	f023 53f8 	bic.w	r3, r3, #520093696	@ 0x1f000000
 80021f4:	ea43 6302 	orr.w	r3, r3, r2, lsl #24
 80021f8:	6063      	str	r3, [r4, #4]
 80021fa:	e74c      	b.n	8002096 <HAL_RCC_OscConfig+0xae>
 80021fc:	68eb      	ldr	r3, [r5, #12]
 80021fe:	b17b      	cbz	r3, 8002220 <HAL_RCC_OscConfig+0x238>
 8002200:	6823      	ldr	r3, [r4, #0]
 8002202:	f443 7380 	orr.w	r3, r3, #256	@ 0x100
 8002206:	6023      	str	r3, [r4, #0]
 8002208:	f7ff fa46 	bl	8001698 <HAL_GetTick>
 800220c:	4607      	mov	r7, r0
 800220e:	6823      	ldr	r3, [r4, #0]
 8002210:	055b      	lsls	r3, r3, #21
 8002212:	d4eb      	bmi.n	80021ec <HAL_RCC_OscConfig+0x204>
 8002214:	f7ff fa40 	bl	8001698 <HAL_GetTick>
 8002218:	1bc0      	subs	r0, r0, r7
 800221a:	2802      	cmp	r0, #2
 800221c:	d9f7      	bls.n	800220e <HAL_RCC_OscConfig+0x226>
 800221e:	e783      	b.n	8002128 <HAL_RCC_OscConfig+0x140>
 8002220:	6823      	ldr	r3, [r4, #0]
 8002222:	f423 7380 	bic.w	r3, r3, #256	@ 0x100
 8002226:	6023      	str	r3, [r4, #0]
 8002228:	f7ff fa36 	bl	8001698 <HAL_GetTick>
 800222c:	4607      	mov	r7, r0
 800222e:	6823      	ldr	r3, [r4, #0]
 8002230:	0558      	lsls	r0, r3, #21
 8002232:	f57f af30 	bpl.w	8002096 <HAL_RCC_OscConfig+0xae>
 8002236:	f7ff fa2f 	bl	8001698 <HAL_GetTick>
 800223a:	1bc0      	subs	r0, r0, r7
 800223c:	2802      	cmp	r0, #2
 800223e:	d9f6      	bls.n	800222e <HAL_RCC_OscConfig+0x246>
 8002240:	e772      	b.n	8002128 <HAL_RCC_OscConfig+0x140>
 8002242:	bf00      	nop
 8002244:	40021000 	.word	0x40021000
 8002248:	080049f8 	.word	0x080049f8
 800224c:	20000024 	.word	0x20000024
 8002250:	2000002c 	.word	0x2000002c
 8002254:	696b      	ldr	r3, [r5, #20]
 8002256:	b19b      	cbz	r3, 8002280 <HAL_RCC_OscConfig+0x298>
 8002258:	f8d4 3094 	ldr.w	r3, [r4, #148]	@ 0x94
 800225c:	f043 0301 	orr.w	r3, r3, #1
 8002260:	f8c4 3094 	str.w	r3, [r4, #148]	@ 0x94
 8002264:	f7ff fa18 	bl	8001698 <HAL_GetTick>
 8002268:	4607      	mov	r7, r0
 800226a:	f8d4 3094 	ldr.w	r3, [r4, #148]	@ 0x94
 800226e:	079b      	lsls	r3, r3, #30
 8002270:	f53f af15 	bmi.w	800209e <HAL_RCC_OscConfig+0xb6>
 8002274:	f7ff fa10 	bl	8001698 <HAL_GetTick>
 8002278:	1bc0      	subs	r0, r0, r7
 800227a:	2802      	cmp	r0, #2
 800227c:	d9f5      	bls.n	800226a <HAL_RCC_OscConfig+0x282>
 800227e:	e753      	b.n	8002128 <HAL_RCC_OscConfig+0x140>
 8002280:	f8d4 3094 	ldr.w	r3, [r4, #148]	@ 0x94
 8002284:	f023 0301 	bic.w	r3, r3, #1
 8002288:	f8c4 3094 	str.w	r3, [r4, #148]	@ 0x94
 800228c:	f7ff fa04 	bl	8001698 <HAL_GetTick>
 8002290:	4607      	mov	r7, r0
 8002292:	f8d4 3094 	ldr.w	r3, [r4, #148]	@ 0x94
 8002296:	0798      	lsls	r0, r3, #30
 8002298:	f57f af01 	bpl.w	800209e <HAL_RCC_OscConfig+0xb6>
 800229c:	f7ff f9fc 	bl	8001698 <HAL_GetTick>
 80022a0:	1bc0      	subs	r0, r0, r7
 80022a2:	2802      	cmp	r0, #2
 80022a4:	d9f5      	bls.n	8002292 <HAL_RCC_OscConfig+0x2aa>
 80022a6:	e73f      	b.n	8002128 <HAL_RCC_OscConfig+0x140>
 80022a8:	6da3      	ldr	r3, [r4, #88]	@ 0x58
 80022aa:	00d9      	lsls	r1, r3, #3
 80022ac:	d429      	bmi.n	8002302 <HAL_RCC_OscConfig+0x31a>
 80022ae:	6da3      	ldr	r3, [r4, #88]	@ 0x58
 80022b0:	f043 5380 	orr.w	r3, r3, #268435456	@ 0x10000000
 80022b4:	65a3      	str	r3, [r4, #88]	@ 0x58
 80022b6:	6da3      	ldr	r3, [r4, #88]	@ 0x58
 80022b8:	f003 5380 	and.w	r3, r3, #268435456	@ 0x10000000
 80022bc:	9301      	str	r3, [sp, #4]
 80022be:	9b01      	ldr	r3, [sp, #4]
 80022c0:	f04f 0801 	mov.w	r8, #1
 80022c4:	4f84      	ldr	r7, [pc, #528]	@ (80024d8 <HAL_RCC_OscConfig+0x4f0>)
 80022c6:	683b      	ldr	r3, [r7, #0]
 80022c8:	05da      	lsls	r2, r3, #23
 80022ca:	d51d      	bpl.n	8002308 <HAL_RCC_OscConfig+0x320>
 80022cc:	68ab      	ldr	r3, [r5, #8]
 80022ce:	2b01      	cmp	r3, #1
 80022d0:	d12b      	bne.n	800232a <HAL_RCC_OscConfig+0x342>
 80022d2:	f8d4 3090 	ldr.w	r3, [r4, #144]	@ 0x90
 80022d6:	f043 0301 	orr.w	r3, r3, #1
 80022da:	f8c4 3090 	str.w	r3, [r4, #144]	@ 0x90
 80022de:	f7ff f9db 	bl	8001698 <HAL_GetTick>
 80022e2:	f241 3988 	movw	r9, #5000	@ 0x1388
 80022e6:	4607      	mov	r7, r0
 80022e8:	f8d4 3090 	ldr.w	r3, [r4, #144]	@ 0x90
 80022ec:	0798      	lsls	r0, r3, #30
 80022ee:	d542      	bpl.n	8002376 <HAL_RCC_OscConfig+0x38e>
 80022f0:	f1b8 0f00 	cmp.w	r8, #0
 80022f4:	f43f aed7 	beq.w	80020a6 <HAL_RCC_OscConfig+0xbe>
 80022f8:	6da3      	ldr	r3, [r4, #88]	@ 0x58
 80022fa:	f023 5380 	bic.w	r3, r3, #268435456	@ 0x10000000
 80022fe:	65a3      	str	r3, [r4, #88]	@ 0x58
 8002300:	e6d1      	b.n	80020a6 <HAL_RCC_OscConfig+0xbe>
 8002302:	f04f 0800 	mov.w	r8, #0
 8002306:	e7dd      	b.n	80022c4 <HAL_RCC_OscConfig+0x2dc>
 8002308:	683b      	ldr	r3, [r7, #0]
 800230a:	f443 7380 	orr.w	r3, r3, #256	@ 0x100
 800230e:	603b      	str	r3, [r7, #0]
 8002310:	f7ff f9c2 	bl	8001698 <HAL_GetTick>
 8002314:	4681      	mov	r9, r0
 8002316:	683b      	ldr	r3, [r7, #0]
 8002318:	05db      	lsls	r3, r3, #23
 800231a:	d4d7      	bmi.n	80022cc <HAL_RCC_OscConfig+0x2e4>
 800231c:	f7ff f9bc 	bl	8001698 <HAL_GetTick>
 8002320:	eba0 0009 	sub.w	r0, r0, r9
 8002324:	2802      	cmp	r0, #2
 8002326:	d9f6      	bls.n	8002316 <HAL_RCC_OscConfig+0x32e>
 8002328:	e6fe      	b.n	8002128 <HAL_RCC_OscConfig+0x140>
 800232a:	2b05      	cmp	r3, #5
 800232c:	d106      	bne.n	800233c <HAL_RCC_OscConfig+0x354>
 800232e:	f8d4 3090 	ldr.w	r3, [r4, #144]	@ 0x90
 8002332:	f043 0304 	orr.w	r3, r3, #4
 8002336:	f8c4 3090 	str.w	r3, [r4, #144]	@ 0x90
 800233a:	e7ca      	b.n	80022d2 <HAL_RCC_OscConfig+0x2ea>
 800233c:	f8d4 2090 	ldr.w	r2, [r4, #144]	@ 0x90
 8002340:	f022 0201 	bic.w	r2, r2, #1
 8002344:	f8c4 2090 	str.w	r2, [r4, #144]	@ 0x90
 8002348:	f8d4 2090 	ldr.w	r2, [r4, #144]	@ 0x90
 800234c:	f022 0204 	bic.w	r2, r2, #4
 8002350:	f8c4 2090 	str.w	r2, [r4, #144]	@ 0x90
 8002354:	2b00      	cmp	r3, #0
 8002356:	d1c2      	bne.n	80022de <HAL_RCC_OscConfig+0x2f6>
 8002358:	f7ff f99e 	bl	8001698 <HAL_GetTick>
 800235c:	f241 3988 	movw	r9, #5000	@ 0x1388
 8002360:	4607      	mov	r7, r0
 8002362:	f8d4 3090 	ldr.w	r3, [r4, #144]	@ 0x90
 8002366:	0799      	lsls	r1, r3, #30
 8002368:	d5c2      	bpl.n	80022f0 <HAL_RCC_OscConfig+0x308>
 800236a:	f7ff f995 	bl	8001698 <HAL_GetTick>
 800236e:	1bc0      	subs	r0, r0, r7
 8002370:	4548      	cmp	r0, r9
 8002372:	d9f6      	bls.n	8002362 <HAL_RCC_OscConfig+0x37a>
 8002374:	e6d8      	b.n	8002128 <HAL_RCC_OscConfig+0x140>
 8002376:	f7ff f98f 	bl	8001698 <HAL_GetTick>
 800237a:	1bc0      	subs	r0, r0, r7
 800237c:	4548      	cmp	r0, r9
 800237e:	d9b3      	bls.n	80022e8 <HAL_RCC_OscConfig+0x300>
 8002380:	e6d2      	b.n	8002128 <HAL_RCC_OscConfig+0x140>
 8002382:	2b02      	cmp	r3, #2
 8002384:	f040 808f 	bne.w	80024a6 <HAL_RCC_OscConfig+0x4be>
 8002388:	68e3      	ldr	r3, [r4, #12]
 800238a:	6aea      	ldr	r2, [r5, #44]	@ 0x2c
 800238c:	f003 0103 	and.w	r1, r3, #3
 8002390:	4291      	cmp	r1, r2
 8002392:	d124      	bne.n	80023de <HAL_RCC_OscConfig+0x3f6>
 8002394:	6b29      	ldr	r1, [r5, #48]	@ 0x30
 8002396:	f003 0270 	and.w	r2, r3, #112	@ 0x70
 800239a:	3901      	subs	r1, #1
 800239c:	ebb2 1f01 	cmp.w	r2, r1, lsl #4
 80023a0:	d11d      	bne.n	80023de <HAL_RCC_OscConfig+0x3f6>
 80023a2:	6b69      	ldr	r1, [r5, #52]	@ 0x34
 80023a4:	f403 42fe 	and.w	r2, r3, #32512	@ 0x7f00
 80023a8:	ebb2 2f01 	cmp.w	r2, r1, lsl #8
 80023ac:	d117      	bne.n	80023de <HAL_RCC_OscConfig+0x3f6>
 80023ae:	6baa      	ldr	r2, [r5, #56]	@ 0x38
 80023b0:	3a07      	subs	r2, #7
 80023b2:	f403 3100 	and.w	r1, r3, #131072	@ 0x20000
 80023b6:	bf18      	it	ne
 80023b8:	2201      	movne	r2, #1
 80023ba:	4291      	cmp	r1, r2
 80023bc:	d10f      	bne.n	80023de <HAL_RCC_OscConfig+0x3f6>
 80023be:	6bea      	ldr	r2, [r5, #60]	@ 0x3c
 80023c0:	0852      	lsrs	r2, r2, #1
 80023c2:	f403 01c0 	and.w	r1, r3, #6291456	@ 0x600000
 80023c6:	3a01      	subs	r2, #1
 80023c8:	ebb1 5f42 	cmp.w	r1, r2, lsl #21
 80023cc:	d107      	bne.n	80023de <HAL_RCC_OscConfig+0x3f6>
 80023ce:	6c2a      	ldr	r2, [r5, #64]	@ 0x40
 80023d0:	0852      	lsrs	r2, r2, #1
 80023d2:	f003 63c0 	and.w	r3, r3, #100663296	@ 0x6000000
 80023d6:	3a01      	subs	r2, #1
 80023d8:	ebb3 6f42 	cmp.w	r3, r2, lsl #25
 80023dc:	d04a      	beq.n	8002474 <HAL_RCC_OscConfig+0x48c>
 80023de:	2e0c      	cmp	r6, #12
 80023e0:	f43f ae06 	beq.w	8001ff0 <HAL_RCC_OscConfig+0x8>
 80023e4:	6823      	ldr	r3, [r4, #0]
 80023e6:	015a      	lsls	r2, r3, #5
 80023e8:	f53f ae02 	bmi.w	8001ff0 <HAL_RCC_OscConfig+0x8>
 80023ec:	6823      	ldr	r3, [r4, #0]
 80023ee:	00db      	lsls	r3, r3, #3
 80023f0:	f53f adfe 	bmi.w	8001ff0 <HAL_RCC_OscConfig+0x8>
 80023f4:	6823      	ldr	r3, [r4, #0]
 80023f6:	f023 7380 	bic.w	r3, r3, #16777216	@ 0x1000000
 80023fa:	6023      	str	r3, [r4, #0]
 80023fc:	f7ff f94c 	bl	8001698 <HAL_GetTick>
 8002400:	4606      	mov	r6, r0
 8002402:	6823      	ldr	r3, [r4, #0]
 8002404:	019f      	lsls	r7, r3, #6
 8002406:	d42f      	bmi.n	8002468 <HAL_RCC_OscConfig+0x480>
 8002408:	68e2      	ldr	r2, [r4, #12]
 800240a:	4b34      	ldr	r3, [pc, #208]	@ (80024dc <HAL_RCC_OscConfig+0x4f4>)
 800240c:	4013      	ands	r3, r2
 800240e:	6aea      	ldr	r2, [r5, #44]	@ 0x2c
 8002410:	4313      	orrs	r3, r2
 8002412:	6b6a      	ldr	r2, [r5, #52]	@ 0x34
 8002414:	ea43 2302 	orr.w	r3, r3, r2, lsl #8
 8002418:	6b2a      	ldr	r2, [r5, #48]	@ 0x30
 800241a:	3a01      	subs	r2, #1
 800241c:	ea43 1302 	orr.w	r3, r3, r2, lsl #4
 8002420:	6baa      	ldr	r2, [r5, #56]	@ 0x38
 8002422:	0912      	lsrs	r2, r2, #4
 8002424:	ea43 4342 	orr.w	r3, r3, r2, lsl #17
 8002428:	6bea      	ldr	r2, [r5, #60]	@ 0x3c
 800242a:	0852      	lsrs	r2, r2, #1
 800242c:	3a01      	subs	r2, #1
 800242e:	ea43 5342 	orr.w	r3, r3, r2, lsl #21
 8002432:	6c2a      	ldr	r2, [r5, #64]	@ 0x40
 8002434:	0852      	lsrs	r2, r2, #1
 8002436:	3a01      	subs	r2, #1
 8002438:	ea43 6342 	orr.w	r3, r3, r2, lsl #25
 800243c:	60e3      	str	r3, [r4, #12]
 800243e:	6823      	ldr	r3, [r4, #0]
 8002440:	f043 7380 	orr.w	r3, r3, #16777216	@ 0x1000000
 8002444:	6023      	str	r3, [r4, #0]
 8002446:	68e3      	ldr	r3, [r4, #12]
 8002448:	f043 7380 	orr.w	r3, r3, #16777216	@ 0x1000000
 800244c:	60e3      	str	r3, [r4, #12]
 800244e:	f7ff f923 	bl	8001698 <HAL_GetTick>
 8002452:	4605      	mov	r5, r0
 8002454:	6823      	ldr	r3, [r4, #0]
 8002456:	0198      	lsls	r0, r3, #6
 8002458:	f53f ae29 	bmi.w	80020ae <HAL_RCC_OscConfig+0xc6>
 800245c:	f7ff f91c 	bl	8001698 <HAL_GetTick>
 8002460:	1b40      	subs	r0, r0, r5
 8002462:	2802      	cmp	r0, #2
 8002464:	d9f6      	bls.n	8002454 <HAL_RCC_OscConfig+0x46c>
 8002466:	e65f      	b.n	8002128 <HAL_RCC_OscConfig+0x140>
 8002468:	f7ff f916 	bl	8001698 <HAL_GetTick>
 800246c:	1b80      	subs	r0, r0, r6
 800246e:	2802      	cmp	r0, #2
 8002470:	d9c7      	bls.n	8002402 <HAL_RCC_OscConfig+0x41a>
 8002472:	e659      	b.n	8002128 <HAL_RCC_OscConfig+0x140>
 8002474:	6823      	ldr	r3, [r4, #0]
 8002476:	0199      	lsls	r1, r3, #6
 8002478:	f53f ae19 	bmi.w	80020ae <HAL_RCC_OscConfig+0xc6>
 800247c:	6823      	ldr	r3, [r4, #0]
 800247e:	f043 7380 	orr.w	r3, r3, #16777216	@ 0x1000000
 8002482:	6023      	str	r3, [r4, #0]
 8002484:	68e3      	ldr	r3, [r4, #12]
 8002486:	f043 7380 	orr.w	r3, r3, #16777216	@ 0x1000000
 800248a:	60e3      	str	r3, [r4, #12]
 800248c:	f7ff f904 	bl	8001698 <HAL_GetTick>
 8002490:	4605      	mov	r5, r0
 8002492:	6823      	ldr	r3, [r4, #0]
 8002494:	019a      	lsls	r2, r3, #6
 8002496:	f53f ae0a 	bmi.w	80020ae <HAL_RCC_OscConfig+0xc6>
 800249a:	f7ff f8fd 	bl	8001698 <HAL_GetTick>
 800249e:	1b40      	subs	r0, r0, r5
 80024a0:	2802      	cmp	r0, #2
 80024a2:	d9f6      	bls.n	8002492 <HAL_RCC_OscConfig+0x4aa>
 80024a4:	e640      	b.n	8002128 <HAL_RCC_OscConfig+0x140>
 80024a6:	2e0c      	cmp	r6, #12
 80024a8:	f43f ada2 	beq.w	8001ff0 <HAL_RCC_OscConfig+0x8>
 80024ac:	6823      	ldr	r3, [r4, #0]
 80024ae:	f023 7380 	bic.w	r3, r3, #16777216	@ 0x1000000
 80024b2:	6023      	str	r3, [r4, #0]
 80024b4:	f7ff f8f0 	bl	8001698 <HAL_GetTick>
 80024b8:	4605      	mov	r5, r0
 80024ba:	6823      	ldr	r3, [r4, #0]
 80024bc:	019b      	lsls	r3, r3, #6
 80024be:	d404      	bmi.n	80024ca <HAL_RCC_OscConfig+0x4e2>
 80024c0:	68e2      	ldr	r2, [r4, #12]
 80024c2:	4b07      	ldr	r3, [pc, #28]	@ (80024e0 <HAL_RCC_OscConfig+0x4f8>)
 80024c4:	4013      	ands	r3, r2
 80024c6:	60e3      	str	r3, [r4, #12]
 80024c8:	e5f1      	b.n	80020ae <HAL_RCC_OscConfig+0xc6>
 80024ca:	f7ff f8e5 	bl	8001698 <HAL_GetTick>
 80024ce:	1b40      	subs	r0, r0, r5
 80024d0:	2802      	cmp	r0, #2
 80024d2:	d9f2      	bls.n	80024ba <HAL_RCC_OscConfig+0x4d2>
 80024d4:	e628      	b.n	8002128 <HAL_RCC_OscConfig+0x140>
 80024d6:	bf00      	nop
 80024d8:	40007000 	.word	0x40007000
 80024dc:	f99d808c 	.word	0xf99d808c
 80024e0:	feeefffc 	.word	0xfeeefffc

080024e4 <HAL_RCC_ClockConfig>:
 80024e4:	e92d 41f0 	stmdb	sp!, {r4, r5, r6, r7, r8, lr}
 80024e8:	460d      	mov	r5, r1
 80024ea:	4604      	mov	r4, r0
 80024ec:	b910      	cbnz	r0, 80024f4 <HAL_RCC_ClockConfig+0x10>
 80024ee:	2001      	movs	r0, #1
 80024f0:	e8bd 81f0 	ldmia.w	sp!, {r4, r5, r6, r7, r8, pc}
 80024f4:	4a4b      	ldr	r2, [pc, #300]	@ (8002624 <HAL_RCC_ClockConfig+0x140>)
 80024f6:	6813      	ldr	r3, [r2, #0]
 80024f8:	f003 0307 	and.w	r3, r3, #7
 80024fc:	428b      	cmp	r3, r1
 80024fe:	d32c      	bcc.n	800255a <HAL_RCC_ClockConfig+0x76>
 8002500:	6821      	ldr	r1, [r4, #0]
 8002502:	0788      	lsls	r0, r1, #30
 8002504:	d434      	bmi.n	8002570 <HAL_RCC_ClockConfig+0x8c>
 8002506:	07c9      	lsls	r1, r1, #31
 8002508:	d43f      	bmi.n	800258a <HAL_RCC_ClockConfig+0xa6>
 800250a:	6821      	ldr	r1, [r4, #0]
 800250c:	078a      	lsls	r2, r1, #30
 800250e:	d468      	bmi.n	80025e2 <HAL_RCC_ClockConfig+0xfe>
 8002510:	4a44      	ldr	r2, [pc, #272]	@ (8002624 <HAL_RCC_ClockConfig+0x140>)
 8002512:	6813      	ldr	r3, [r2, #0]
 8002514:	f003 0307 	and.w	r3, r3, #7
 8002518:	42ab      	cmp	r3, r5
 800251a:	d86f      	bhi.n	80025fc <HAL_RCC_ClockConfig+0x118>
 800251c:	f011 0f04 	tst.w	r1, #4
 8002520:	4d41      	ldr	r5, [pc, #260]	@ (8002628 <HAL_RCC_ClockConfig+0x144>)
 8002522:	d177      	bne.n	8002614 <HAL_RCC_ClockConfig+0x130>
 8002524:	070b      	lsls	r3, r1, #28
 8002526:	d506      	bpl.n	8002536 <HAL_RCC_ClockConfig+0x52>
 8002528:	68ab      	ldr	r3, [r5, #8]
 800252a:	6922      	ldr	r2, [r4, #16]
 800252c:	f423 5360 	bic.w	r3, r3, #14336	@ 0x3800
 8002530:	ea43 03c2 	orr.w	r3, r3, r2, lsl #3
 8002534:	60ab      	str	r3, [r5, #8]
 8002536:	f7ff fd0d 	bl	8001f54 <HAL_RCC_GetSysClockFreq>
 800253a:	68ab      	ldr	r3, [r5, #8]
 800253c:	4a3b      	ldr	r2, [pc, #236]	@ (800262c <HAL_RCC_ClockConfig+0x148>)
 800253e:	f3c3 1303 	ubfx	r3, r3, #4, #4
 8002542:	e8bd 41f0 	ldmia.w	sp!, {r4, r5, r6, r7, r8, lr}
 8002546:	5cd3      	ldrb	r3, [r2, r3]
 8002548:	f003 031f 	and.w	r3, r3, #31
 800254c:	40d8      	lsrs	r0, r3
 800254e:	4b38      	ldr	r3, [pc, #224]	@ (8002630 <HAL_RCC_ClockConfig+0x14c>)
 8002550:	6018      	str	r0, [r3, #0]
 8002552:	4b38      	ldr	r3, [pc, #224]	@ (8002634 <HAL_RCC_ClockConfig+0x150>)
 8002554:	6818      	ldr	r0, [r3, #0]
 8002556:	f7ff b857 	b.w	8001608 <HAL_InitTick>
 800255a:	6813      	ldr	r3, [r2, #0]
 800255c:	f023 0307 	bic.w	r3, r3, #7
 8002560:	430b      	orrs	r3, r1
 8002562:	6013      	str	r3, [r2, #0]
 8002564:	6813      	ldr	r3, [r2, #0]
 8002566:	f003 0307 	and.w	r3, r3, #7
 800256a:	428b      	cmp	r3, r1
 800256c:	d1bf      	bne.n	80024ee <HAL_RCC_ClockConfig+0xa>
 800256e:	e7c7      	b.n	8002500 <HAL_RCC_ClockConfig+0x1c>
 8002570:	4a2d      	ldr	r2, [pc, #180]	@ (8002628 <HAL_RCC_ClockConfig+0x144>)
 8002572:	68a0      	ldr	r0, [r4, #8]
 8002574:	6893      	ldr	r3, [r2, #8]
 8002576:	f003 03f0 	and.w	r3, r3, #240	@ 0xf0
 800257a:	4298      	cmp	r0, r3
 800257c:	bf81      	itttt	hi
 800257e:	6893      	ldrhi	r3, [r2, #8]
 8002580:	f023 03f0 	bichi.w	r3, r3, #240	@ 0xf0
 8002584:	4303      	orrhi	r3, r0
 8002586:	6093      	strhi	r3, [r2, #8]
 8002588:	e7bd      	b.n	8002506 <HAL_RCC_ClockConfig+0x22>
 800258a:	6862      	ldr	r2, [r4, #4]
 800258c:	4e26      	ldr	r6, [pc, #152]	@ (8002628 <HAL_RCC_ClockConfig+0x144>)
 800258e:	2a03      	cmp	r2, #3
 8002590:	6833      	ldr	r3, [r6, #0]
 8002592:	d11a      	bne.n	80025ca <HAL_RCC_ClockConfig+0xe6>
 8002594:	f013 7f00 	tst.w	r3, #33554432	@ 0x2000000
 8002598:	d0a9      	beq.n	80024ee <HAL_RCC_ClockConfig+0xa>
 800259a:	68b3      	ldr	r3, [r6, #8]
 800259c:	f023 0303 	bic.w	r3, r3, #3
 80025a0:	4313      	orrs	r3, r2
 80025a2:	60b3      	str	r3, [r6, #8]
 80025a4:	f7ff f878 	bl	8001698 <HAL_GetTick>
 80025a8:	f241 3888 	movw	r8, #5000	@ 0x1388
 80025ac:	4607      	mov	r7, r0
 80025ae:	68b3      	ldr	r3, [r6, #8]
 80025b0:	6862      	ldr	r2, [r4, #4]
 80025b2:	f003 030c 	and.w	r3, r3, #12
 80025b6:	ebb3 0f82 	cmp.w	r3, r2, lsl #2
 80025ba:	d0a6      	beq.n	800250a <HAL_RCC_ClockConfig+0x26>
 80025bc:	f7ff f86c 	bl	8001698 <HAL_GetTick>
 80025c0:	1bc0      	subs	r0, r0, r7
 80025c2:	4540      	cmp	r0, r8
 80025c4:	d9f3      	bls.n	80025ae <HAL_RCC_ClockConfig+0xca>
 80025c6:	2003      	movs	r0, #3
 80025c8:	e792      	b.n	80024f0 <HAL_RCC_ClockConfig+0xc>
 80025ca:	2a02      	cmp	r2, #2
 80025cc:	d102      	bne.n	80025d4 <HAL_RCC_ClockConfig+0xf0>
 80025ce:	f413 3f00 	tst.w	r3, #131072	@ 0x20000
 80025d2:	e7e1      	b.n	8002598 <HAL_RCC_ClockConfig+0xb4>
 80025d4:	b912      	cbnz	r2, 80025dc <HAL_RCC_ClockConfig+0xf8>
 80025d6:	f013 0f02 	tst.w	r3, #2
 80025da:	e7dd      	b.n	8002598 <HAL_RCC_ClockConfig+0xb4>
 80025dc:	f413 6f80 	tst.w	r3, #1024	@ 0x400
 80025e0:	e7da      	b.n	8002598 <HAL_RCC_ClockConfig+0xb4>
 80025e2:	4a11      	ldr	r2, [pc, #68]	@ (8002628 <HAL_RCC_ClockConfig+0x144>)
 80025e4:	68a0      	ldr	r0, [r4, #8]
 80025e6:	6893      	ldr	r3, [r2, #8]
 80025e8:	f003 03f0 	and.w	r3, r3, #240	@ 0xf0
 80025ec:	4298      	cmp	r0, r3
 80025ee:	bf3f      	itttt	cc
 80025f0:	6893      	ldrcc	r3, [r2, #8]
 80025f2:	f023 03f0 	biccc.w	r3, r3, #240	@ 0xf0
 80025f6:	4303      	orrcc	r3, r0
 80025f8:	6093      	strcc	r3, [r2, #8]
 80025fa:	e789      	b.n	8002510 <HAL_RCC_ClockConfig+0x2c>
 80025fc:	6813      	ldr	r3, [r2, #0]
 80025fe:	f023 0307 	bic.w	r3, r3, #7
 8002602:	432b      	orrs	r3, r5
 8002604:	6013      	str	r3, [r2, #0]
 8002606:	6813      	ldr	r3, [r2, #0]
 8002608:	f003 0307 	and.w	r3, r3, #7
 800260c:	42ab      	cmp	r3, r5
 800260e:	f47f af6e 	bne.w	80024ee <HAL_RCC_ClockConfig+0xa>
 8002612:	e783      	b.n	800251c <HAL_RCC_ClockConfig+0x38>
 8002614:	68ab      	ldr	r3, [r5, #8]
 8002616:	68e2      	ldr	r2, [r4, #12]
 8002618:	f423 63e0 	bic.w	r3, r3, #1792	@ 0x700
 800261c:	4313      	orrs	r3, r2
 800261e:	60ab      	str	r3, [r5, #8]
 8002620:	e780      	b.n	8002524 <HAL_RCC_ClockConfig+0x40>
 8002622:	bf00      	nop
 8002624:	40022000 	.word	0x40022000
 8002628:	40021000 	.word	0x40021000
 800262c:	080049f8 	.word	0x080049f8
 8002630:	20000024 	.word	0x20000024
 8002634:	2000002c 	.word	0x2000002c

08002638 <HAL_TIM_Base_Start>:
 8002638:	f890 303d 	ldrb.w	r3, [r0, #61]	@ 0x3d
 800263c:	2b01      	cmp	r3, #1
 800263e:	d12b      	bne.n	8002698 <HAL_TIM_Base_Start+0x60>
 8002640:	2302      	movs	r3, #2
 8002642:	4a16      	ldr	r2, [pc, #88]	@ (800269c <HAL_TIM_Base_Start+0x64>)
 8002644:	f880 303d 	strb.w	r3, [r0, #61]	@ 0x3d
 8002648:	6803      	ldr	r3, [r0, #0]
 800264a:	4293      	cmp	r3, r2
 800264c:	d016      	beq.n	800267c <HAL_TIM_Base_Start+0x44>
 800264e:	f1b3 4f80 	cmp.w	r3, #1073741824	@ 0x40000000
 8002652:	d013      	beq.n	800267c <HAL_TIM_Base_Start+0x44>
 8002654:	f5a2 3294 	sub.w	r2, r2, #75776	@ 0x12800
 8002658:	4293      	cmp	r3, r2
 800265a:	d00f      	beq.n	800267c <HAL_TIM_Base_Start+0x44>
 800265c:	f502 6280 	add.w	r2, r2, #1024	@ 0x400
 8002660:	4293      	cmp	r3, r2
 8002662:	d00b      	beq.n	800267c <HAL_TIM_Base_Start+0x44>
 8002664:	f502 6280 	add.w	r2, r2, #1024	@ 0x400
 8002668:	4293      	cmp	r3, r2
 800266a:	d007      	beq.n	800267c <HAL_TIM_Base_Start+0x44>
 800266c:	f502 3294 	add.w	r2, r2, #75776	@ 0x12800
 8002670:	4293      	cmp	r3, r2
 8002672:	d003      	beq.n	800267c <HAL_TIM_Base_Start+0x44>
 8002674:	f502 6240 	add.w	r2, r2, #3072	@ 0xc00
 8002678:	4293      	cmp	r3, r2
 800267a:	d107      	bne.n	800268c <HAL_TIM_Base_Start+0x54>
 800267c:	6899      	ldr	r1, [r3, #8]
 800267e:	4a08      	ldr	r2, [pc, #32]	@ (80026a0 <HAL_TIM_Base_Start+0x68>)
 8002680:	400a      	ands	r2, r1
 8002682:	2a06      	cmp	r2, #6
 8002684:	d006      	beq.n	8002694 <HAL_TIM_Base_Start+0x5c>
 8002686:	f5b2 3f80 	cmp.w	r2, #65536	@ 0x10000
 800268a:	d003      	beq.n	8002694 <HAL_TIM_Base_Start+0x5c>
 800268c:	681a      	ldr	r2, [r3, #0]
 800268e:	f042 0201 	orr.w	r2, r2, #1
 8002692:	601a      	str	r2, [r3, #0]
 8002694:	2000      	movs	r0, #0
 8002696:	4770      	bx	lr
 8002698:	2001      	movs	r0, #1
 800269a:	4770      	bx	lr
 800269c:	40012c00 	.word	0x40012c00
 80026a0:	00010007 	.word	0x00010007

080026a4 <HAL_TIM_Base_Stop>:
 80026a4:	6803      	ldr	r3, [r0, #0]
 80026a6:	6a19      	ldr	r1, [r3, #32]
 80026a8:	f241 1211 	movw	r2, #4369	@ 0x1111
 80026ac:	4211      	tst	r1, r2
 80026ae:	d108      	bne.n	80026c2 <HAL_TIM_Base_Stop+0x1e>
 80026b0:	6a19      	ldr	r1, [r3, #32]
 80026b2:	f240 4244 	movw	r2, #1092	@ 0x444
 80026b6:	4211      	tst	r1, r2
 80026b8:	bf02      	ittt	eq
 80026ba:	681a      	ldreq	r2, [r3, #0]
 80026bc:	f022 0201 	biceq.w	r2, r2, #1
 80026c0:	601a      	streq	r2, [r3, #0]
 80026c2:	2301      	movs	r3, #1
 80026c4:	f880 303d 	strb.w	r3, [r0, #61]	@ 0x3d
 80026c8:	2000      	movs	r0, #0
 80026ca:	4770      	bx	lr

080026cc <TIM_Base_SetConfig>:
 80026cc:	4a29      	ldr	r2, [pc, #164]	@ (8002774 <TIM_Base_SetConfig+0xa8>)
 80026ce:	6803      	ldr	r3, [r0, #0]
 80026d0:	4290      	cmp	r0, r2
 80026d2:	d012      	beq.n	80026fa <TIM_Base_SetConfig+0x2e>
 80026d4:	f1b0 4f80 	cmp.w	r0, #1073741824	@ 0x40000000
 80026d8:	d00f      	beq.n	80026fa <TIM_Base_SetConfig+0x2e>
 80026da:	f5a2 3294 	sub.w	r2, r2, #75776	@ 0x12800
 80026de:	4290      	cmp	r0, r2
 80026e0:	d00b      	beq.n	80026fa <TIM_Base_SetConfig+0x2e>
 80026e2:	f502 6280 	add.w	r2, r2, #1024	@ 0x400
 80026e6:	4290      	cmp	r0, r2
 80026e8:	d007      	beq.n	80026fa <TIM_Base_SetConfig+0x2e>
 80026ea:	f502 6280 	add.w	r2, r2, #1024	@ 0x400
 80026ee:	4290      	cmp	r0, r2
 80026f0:	d003      	beq.n	80026fa <TIM_Base_SetConfig+0x2e>
 80026f2:	f502 3294 	add.w	r2, r2, #75776	@ 0x12800
 80026f6:	4290      	cmp	r0, r2
 80026f8:	d108      	bne.n	800270c <TIM_Base_SetConfig+0x40>
 80026fa:	684a      	ldr	r2, [r1, #4]
 80026fc:	f023 0370 	bic.w	r3, r3, #112	@ 0x70
 8002700:	4313      	orrs	r3, r2
 8002702:	68ca      	ldr	r2, [r1, #12]
 8002704:	f423 7340 	bic.w	r3, r3, #768	@ 0x300
 8002708:	4313      	orrs	r3, r2
 800270a:	e00a      	b.n	8002722 <TIM_Base_SetConfig+0x56>
 800270c:	4a1a      	ldr	r2, [pc, #104]	@ (8002778 <TIM_Base_SetConfig+0xac>)
 800270e:	4290      	cmp	r0, r2
 8002710:	d0f7      	beq.n	8002702 <TIM_Base_SetConfig+0x36>
 8002712:	f502 6280 	add.w	r2, r2, #1024	@ 0x400
 8002716:	4290      	cmp	r0, r2
 8002718:	d0f3      	beq.n	8002702 <TIM_Base_SetConfig+0x36>
 800271a:	f502 6280 	add.w	r2, r2, #1024	@ 0x400
 800271e:	4290      	cmp	r0, r2
 8002720:	d0ef      	beq.n	8002702 <TIM_Base_SetConfig+0x36>
 8002722:	694a      	ldr	r2, [r1, #20]
 8002724:	f023 0380 	bic.w	r3, r3, #128	@ 0x80
 8002728:	4313      	orrs	r3, r2
 800272a:	6003      	str	r3, [r0, #0]
 800272c:	688b      	ldr	r3, [r1, #8]
 800272e:	62c3      	str	r3, [r0, #44]	@ 0x2c
 8002730:	680b      	ldr	r3, [r1, #0]
 8002732:	6283      	str	r3, [r0, #40]	@ 0x28
 8002734:	4b0f      	ldr	r3, [pc, #60]	@ (8002774 <TIM_Base_SetConfig+0xa8>)
 8002736:	4298      	cmp	r0, r3
 8002738:	d00f      	beq.n	800275a <TIM_Base_SetConfig+0x8e>
 800273a:	f503 6300 	add.w	r3, r3, #2048	@ 0x800
 800273e:	4298      	cmp	r0, r3
 8002740:	d00b      	beq.n	800275a <TIM_Base_SetConfig+0x8e>
 8002742:	f503 6340 	add.w	r3, r3, #3072	@ 0xc00
 8002746:	4298      	cmp	r0, r3
 8002748:	d007      	beq.n	800275a <TIM_Base_SetConfig+0x8e>
 800274a:	f503 6380 	add.w	r3, r3, #1024	@ 0x400
 800274e:	4298      	cmp	r0, r3
 8002750:	d003      	beq.n	800275a <TIM_Base_SetConfig+0x8e>
 8002752:	f503 6380 	add.w	r3, r3, #1024	@ 0x400
 8002756:	4298      	cmp	r0, r3
 8002758:	d101      	bne.n	800275e <TIM_Base_SetConfig+0x92>
 800275a:	690b      	ldr	r3, [r1, #16]
 800275c:	6303      	str	r3, [r0, #48]	@ 0x30
 800275e:	2301      	movs	r3, #1
 8002760:	6143      	str	r3, [r0, #20]
 8002762:	6903      	ldr	r3, [r0, #16]
 8002764:	07db      	lsls	r3, r3, #31
 8002766:	bf42      	ittt	mi
 8002768:	6903      	ldrmi	r3, [r0, #16]
 800276a:	f023 0301 	bicmi.w	r3, r3, #1
 800276e:	6103      	strmi	r3, [r0, #16]
 8002770:	4770      	bx	lr
 8002772:	bf00      	nop
 8002774:	40012c00 	.word	0x40012c00
 8002778:	40014000 	.word	0x40014000

0800277c <HAL_TIM_Base_Init>:
 800277c:	b510      	push	{r4, lr}
 800277e:	4604      	mov	r4, r0
 8002780:	b350      	cbz	r0, 80027d8 <HAL_TIM_Base_Init+0x5c>
 8002782:	f890 303d 	ldrb.w	r3, [r0, #61]	@ 0x3d
 8002786:	f003 02ff 	and.w	r2, r3, #255	@ 0xff
 800278a:	b91b      	cbnz	r3, 8002794 <HAL_TIM_Base_Init+0x18>
 800278c:	f880 203c 	strb.w	r2, [r0, #60]	@ 0x3c
 8002790:	f7fe fe8c 	bl	80014ac <HAL_TIM_Base_MspInit>
 8002794:	2302      	movs	r3, #2
 8002796:	6820      	ldr	r0, [r4, #0]
 8002798:	f884 303d 	strb.w	r3, [r4, #61]	@ 0x3d
 800279c:	1d21      	adds	r1, r4, #4
 800279e:	f7ff ff95 	bl	80026cc <TIM_Base_SetConfig>
 80027a2:	2301      	movs	r3, #1
 80027a4:	f884 3048 	strb.w	r3, [r4, #72]	@ 0x48
 80027a8:	2000      	movs	r0, #0
 80027aa:	f884 303e 	strb.w	r3, [r4, #62]	@ 0x3e
 80027ae:	f884 303f 	strb.w	r3, [r4, #63]	@ 0x3f
 80027b2:	f884 3040 	strb.w	r3, [r4, #64]	@ 0x40
 80027b6:	f884 3041 	strb.w	r3, [r4, #65]	@ 0x41
 80027ba:	f884 3042 	strb.w	r3, [r4, #66]	@ 0x42
 80027be:	f884 3043 	strb.w	r3, [r4, #67]	@ 0x43
 80027c2:	f884 3044 	strb.w	r3, [r4, #68]	@ 0x44
 80027c6:	f884 3045 	strb.w	r3, [r4, #69]	@ 0x45
 80027ca:	f884 3046 	strb.w	r3, [r4, #70]	@ 0x46
 80027ce:	f884 3047 	strb.w	r3, [r4, #71]	@ 0x47
 80027d2:	f884 303d 	strb.w	r3, [r4, #61]	@ 0x3d
 80027d6:	bd10      	pop	{r4, pc}
 80027d8:	2001      	movs	r0, #1
 80027da:	e7fc      	b.n	80027d6 <HAL_TIM_Base_Init+0x5a>

080027dc <TIM_ETR_SetConfig>:
 80027dc:	b510      	push	{r4, lr}
 80027de:	6884      	ldr	r4, [r0, #8]
 80027e0:	430a      	orrs	r2, r1
 80027e2:	f424 447f 	bic.w	r4, r4, #65280	@ 0xff00
 80027e6:	ea42 2203 	orr.w	r2, r2, r3, lsl #8
 80027ea:	4322      	orrs	r2, r4
 80027ec:	6082      	str	r2, [r0, #8]
 80027ee:	bd10      	pop	{r4, pc}

080027f0 <HAL_TIM_ConfigClockSource>:
 80027f0:	b538      	push	{r3, r4, r5, lr}
 80027f2:	f890 303c 	ldrb.w	r3, [r0, #60]	@ 0x3c
 80027f6:	2b01      	cmp	r3, #1
 80027f8:	4604      	mov	r4, r0
 80027fa:	f04f 0002 	mov.w	r0, #2
 80027fe:	f000 808c 	beq.w	800291a <HAL_TIM_ConfigClockSource+0x12a>
 8002802:	f884 003d 	strb.w	r0, [r4, #61]	@ 0x3d
 8002806:	2201      	movs	r2, #1
 8002808:	6820      	ldr	r0, [r4, #0]
 800280a:	f884 203c 	strb.w	r2, [r4, #60]	@ 0x3c
 800280e:	6885      	ldr	r5, [r0, #8]
 8002810:	4b43      	ldr	r3, [pc, #268]	@ (8002920 <HAL_TIM_ConfigClockSource+0x130>)
 8002812:	402b      	ands	r3, r5
 8002814:	6083      	str	r3, [r0, #8]
 8002816:	680b      	ldr	r3, [r1, #0]
 8002818:	2b60      	cmp	r3, #96	@ 0x60
 800281a:	d04f      	beq.n	80028bc <HAL_TIM_ConfigClockSource+0xcc>
 800281c:	d832      	bhi.n	8002884 <HAL_TIM_ConfigClockSource+0x94>
 800281e:	2b40      	cmp	r3, #64	@ 0x40
 8002820:	d064      	beq.n	80028ec <HAL_TIM_ConfigClockSource+0xfc>
 8002822:	d816      	bhi.n	8002852 <HAL_TIM_ConfigClockSource+0x62>
 8002824:	2b20      	cmp	r3, #32
 8002826:	d00d      	beq.n	8002844 <HAL_TIM_ConfigClockSource+0x54>
 8002828:	d80a      	bhi.n	8002840 <HAL_TIM_ConfigClockSource+0x50>
 800282a:	f033 0110 	bics.w	r1, r3, #16
 800282e:	d009      	beq.n	8002844 <HAL_TIM_ConfigClockSource+0x54>
 8002830:	2301      	movs	r3, #1
 8002832:	f884 303d 	strb.w	r3, [r4, #61]	@ 0x3d
 8002836:	2300      	movs	r3, #0
 8002838:	f884 303c 	strb.w	r3, [r4, #60]	@ 0x3c
 800283c:	4610      	mov	r0, r2
 800283e:	bd38      	pop	{r3, r4, r5, pc}
 8002840:	2b30      	cmp	r3, #48	@ 0x30
 8002842:	d1f5      	bne.n	8002830 <HAL_TIM_ConfigClockSource+0x40>
 8002844:	6882      	ldr	r2, [r0, #8]
 8002846:	f022 0270 	bic.w	r2, r2, #112	@ 0x70
 800284a:	4313      	orrs	r3, r2
 800284c:	f043 0307 	orr.w	r3, r3, #7
 8002850:	e028      	b.n	80028a4 <HAL_TIM_ConfigClockSource+0xb4>
 8002852:	2b50      	cmp	r3, #80	@ 0x50
 8002854:	d1ec      	bne.n	8002830 <HAL_TIM_ConfigClockSource+0x40>
 8002856:	684a      	ldr	r2, [r1, #4]
 8002858:	68cd      	ldr	r5, [r1, #12]
 800285a:	6a01      	ldr	r1, [r0, #32]
 800285c:	6a03      	ldr	r3, [r0, #32]
 800285e:	f023 0301 	bic.w	r3, r3, #1
 8002862:	6203      	str	r3, [r0, #32]
 8002864:	6983      	ldr	r3, [r0, #24]
 8002866:	f021 010a 	bic.w	r1, r1, #10
 800286a:	f023 03f0 	bic.w	r3, r3, #240	@ 0xf0
 800286e:	ea43 1305 	orr.w	r3, r3, r5, lsl #4
 8002872:	430a      	orrs	r2, r1
 8002874:	6183      	str	r3, [r0, #24]
 8002876:	6202      	str	r2, [r0, #32]
 8002878:	6883      	ldr	r3, [r0, #8]
 800287a:	f023 0370 	bic.w	r3, r3, #112	@ 0x70
 800287e:	f043 0357 	orr.w	r3, r3, #87	@ 0x57
 8002882:	e00f      	b.n	80028a4 <HAL_TIM_ConfigClockSource+0xb4>
 8002884:	f5b3 5f80 	cmp.w	r3, #4096	@ 0x1000
 8002888:	d00d      	beq.n	80028a6 <HAL_TIM_ConfigClockSource+0xb6>
 800288a:	f5b3 5f00 	cmp.w	r3, #8192	@ 0x2000
 800288e:	d00c      	beq.n	80028aa <HAL_TIM_ConfigClockSource+0xba>
 8002890:	2b70      	cmp	r3, #112	@ 0x70
 8002892:	d1cd      	bne.n	8002830 <HAL_TIM_ConfigClockSource+0x40>
 8002894:	68cb      	ldr	r3, [r1, #12]
 8002896:	e9d1 2101 	ldrd	r2, r1, [r1, #4]
 800289a:	f7ff ff9f 	bl	80027dc <TIM_ETR_SetConfig>
 800289e:	6883      	ldr	r3, [r0, #8]
 80028a0:	f043 0377 	orr.w	r3, r3, #119	@ 0x77
 80028a4:	6083      	str	r3, [r0, #8]
 80028a6:	2200      	movs	r2, #0
 80028a8:	e7c2      	b.n	8002830 <HAL_TIM_ConfigClockSource+0x40>
 80028aa:	68cb      	ldr	r3, [r1, #12]
 80028ac:	e9d1 2101 	ldrd	r2, r1, [r1, #4]
 80028b0:	f7ff ff94 	bl	80027dc <TIM_ETR_SetConfig>
 80028b4:	6883      	ldr	r3, [r0, #8]
 80028b6:	f443 4380 	orr.w	r3, r3, #16384	@ 0x4000
 80028ba:	e7f3      	b.n	80028a4 <HAL_TIM_ConfigClockSource+0xb4>
 80028bc:	6a03      	ldr	r3, [r0, #32]
 80028be:	6a02      	ldr	r2, [r0, #32]
 80028c0:	684d      	ldr	r5, [r1, #4]
 80028c2:	68c9      	ldr	r1, [r1, #12]
 80028c4:	f022 0210 	bic.w	r2, r2, #16
 80028c8:	6202      	str	r2, [r0, #32]
 80028ca:	6982      	ldr	r2, [r0, #24]
 80028cc:	f023 03a0 	bic.w	r3, r3, #160	@ 0xa0
 80028d0:	f422 4270 	bic.w	r2, r2, #61440	@ 0xf000
 80028d4:	ea43 1305 	orr.w	r3, r3, r5, lsl #4
 80028d8:	ea42 3201 	orr.w	r2, r2, r1, lsl #12
 80028dc:	6182      	str	r2, [r0, #24]
 80028de:	6203      	str	r3, [r0, #32]
 80028e0:	6883      	ldr	r3, [r0, #8]
 80028e2:	f023 0370 	bic.w	r3, r3, #112	@ 0x70
 80028e6:	f043 0367 	orr.w	r3, r3, #103	@ 0x67
 80028ea:	e7db      	b.n	80028a4 <HAL_TIM_ConfigClockSource+0xb4>
 80028ec:	684a      	ldr	r2, [r1, #4]
 80028ee:	68cd      	ldr	r5, [r1, #12]
 80028f0:	6a01      	ldr	r1, [r0, #32]
 80028f2:	6a03      	ldr	r3, [r0, #32]
 80028f4:	f023 0301 	bic.w	r3, r3, #1
 80028f8:	6203      	str	r3, [r0, #32]
 80028fa:	6983      	ldr	r3, [r0, #24]
 80028fc:	f021 010a 	bic.w	r1, r1, #10
 8002900:	f023 03f0 	bic.w	r3, r3, #240	@ 0xf0
 8002904:	ea43 1305 	orr.w	r3, r3, r5, lsl #4
 8002908:	430a      	orrs	r2, r1
 800290a:	6183      	str	r3, [r0, #24]
 800290c:	6202      	str	r2, [r0, #32]
 800290e:	6883      	ldr	r3, [r0, #8]
 8002910:	f023 0370 	bic.w	r3, r3, #112	@ 0x70
 8002914:	f043 0347 	orr.w	r3, r3, #71	@ 0x47
 8002918:	e7c4      	b.n	80028a4 <HAL_TIM_ConfigClockSource+0xb4>
 800291a:	4602      	mov	r2, r0
 800291c:	e78e      	b.n	800283c <HAL_TIM_ConfigClockSource+0x4c>
 800291e:	bf00      	nop
 8002920:	fffe0088 	.word	0xfffe0088

08002924 <HAL_TIMEx_MasterConfigSynchronization>:
 8002924:	b570      	push	{r4, r5, r6, lr}
 8002926:	f890 303c 	ldrb.w	r3, [r0, #60]	@ 0x3c
 800292a:	2b01      	cmp	r3, #1
 800292c:	4604      	mov	r4, r0
 800292e:	f04f 0002 	mov.w	r0, #2
 8002932:	d036      	beq.n	80029a2 <HAL_TIMEx_MasterConfigSynchronization+0x7e>
 8002934:	6823      	ldr	r3, [r4, #0]
 8002936:	4d1b      	ldr	r5, [pc, #108]	@ (80029a4 <HAL_TIMEx_MasterConfigSynchronization+0x80>)
 8002938:	f884 003d 	strb.w	r0, [r4, #61]	@ 0x3d
 800293c:	42ab      	cmp	r3, r5
 800293e:	685a      	ldr	r2, [r3, #4]
 8002940:	6898      	ldr	r0, [r3, #8]
 8002942:	d002      	beq.n	800294a <HAL_TIMEx_MasterConfigSynchronization+0x26>
 8002944:	4e18      	ldr	r6, [pc, #96]	@ (80029a8 <HAL_TIMEx_MasterConfigSynchronization+0x84>)
 8002946:	42b3      	cmp	r3, r6
 8002948:	d103      	bne.n	8002952 <HAL_TIMEx_MasterConfigSynchronization+0x2e>
 800294a:	684e      	ldr	r6, [r1, #4]
 800294c:	f422 0270 	bic.w	r2, r2, #15728640	@ 0xf00000
 8002950:	4332      	orrs	r2, r6
 8002952:	680e      	ldr	r6, [r1, #0]
 8002954:	f022 0270 	bic.w	r2, r2, #112	@ 0x70
 8002958:	4332      	orrs	r2, r6
 800295a:	42ab      	cmp	r3, r5
 800295c:	605a      	str	r2, [r3, #4]
 800295e:	d015      	beq.n	800298c <HAL_TIMEx_MasterConfigSynchronization+0x68>
 8002960:	f1b3 4f80 	cmp.w	r3, #1073741824	@ 0x40000000
 8002964:	d012      	beq.n	800298c <HAL_TIMEx_MasterConfigSynchronization+0x68>
 8002966:	4a11      	ldr	r2, [pc, #68]	@ (80029ac <HAL_TIMEx_MasterConfigSynchronization+0x88>)
 8002968:	4293      	cmp	r3, r2
 800296a:	d00f      	beq.n	800298c <HAL_TIMEx_MasterConfigSynchronization+0x68>
 800296c:	f502 6280 	add.w	r2, r2, #1024	@ 0x400
 8002970:	4293      	cmp	r3, r2
 8002972:	d00b      	beq.n	800298c <HAL_TIMEx_MasterConfigSynchronization+0x68>
 8002974:	f502 6280 	add.w	r2, r2, #1024	@ 0x400
 8002978:	4293      	cmp	r3, r2
 800297a:	d007      	beq.n	800298c <HAL_TIMEx_MasterConfigSynchronization+0x68>
 800297c:	f502 3294 	add.w	r2, r2, #75776	@ 0x12800
 8002980:	4293      	cmp	r3, r2
 8002982:	d003      	beq.n	800298c <HAL_TIMEx_MasterConfigSynchronization+0x68>
 8002984:	f502 6240 	add.w	r2, r2, #3072	@ 0xc00
 8002988:	4293      	cmp	r3, r2
 800298a:	d104      	bne.n	8002996 <HAL_TIMEx_MasterConfigSynchronization+0x72>
 800298c:	6889      	ldr	r1, [r1, #8]
 800298e:	f020 0280 	bic.w	r2, r0, #128	@ 0x80
 8002992:	430a      	orrs	r2, r1
 8002994:	609a      	str	r2, [r3, #8]
 8002996:	2301      	movs	r3, #1
 8002998:	2000      	movs	r0, #0
 800299a:	f884 303d 	strb.w	r3, [r4, #61]	@ 0x3d
 800299e:	f884 003c 	strb.w	r0, [r4, #60]	@ 0x3c
 80029a2:	bd70      	pop	{r4, r5, r6, pc}
 80029a4:	40012c00 	.word	0x40012c00
 80029a8:	40013400 	.word	0x40013400
 80029ac:	40000400 	.word	0x40000400

080029b0 <rand>:
 80029b0:	4b16      	ldr	r3, [pc, #88]	@ (8002a0c <rand+0x5c>)
 80029b2:	b510      	push	{r4, lr}
 80029b4:	681c      	ldr	r4, [r3, #0]
 80029b6:	6b23      	ldr	r3, [r4, #48]	@ 0x30
 80029b8:	b9b3      	cbnz	r3, 80029e8 <rand+0x38>
 80029ba:	2018      	movs	r0, #24
 80029bc:	f000 fa20 	bl	8002e00 <malloc>
 80029c0:	4602      	mov	r2, r0
 80029c2:	6320      	str	r0, [r4, #48]	@ 0x30
 80029c4:	b920      	cbnz	r0, 80029d0 <rand+0x20>
 80029c6:	4b12      	ldr	r3, [pc, #72]	@ (8002a10 <rand+0x60>)
 80029c8:	4812      	ldr	r0, [pc, #72]	@ (8002a14 <rand+0x64>)
 80029ca:	2152      	movs	r1, #82	@ 0x52
 80029cc:	f000 f9b0 	bl	8002d30 <__assert_func>
 80029d0:	4911      	ldr	r1, [pc, #68]	@ (8002a18 <rand+0x68>)
 80029d2:	4b12      	ldr	r3, [pc, #72]	@ (8002a1c <rand+0x6c>)
 80029d4:	e9c0 1300 	strd	r1, r3, [r0]
 80029d8:	4b11      	ldr	r3, [pc, #68]	@ (8002a20 <rand+0x70>)
 80029da:	6083      	str	r3, [r0, #8]
 80029dc:	230b      	movs	r3, #11
 80029de:	8183      	strh	r3, [r0, #12]
 80029e0:	2100      	movs	r1, #0
 80029e2:	2001      	movs	r0, #1
 80029e4:	e9c2 0104 	strd	r0, r1, [r2, #16]
 80029e8:	6b21      	ldr	r1, [r4, #48]	@ 0x30
 80029ea:	480e      	ldr	r0, [pc, #56]	@ (8002a24 <rand+0x74>)
 80029ec:	690b      	ldr	r3, [r1, #16]
 80029ee:	694c      	ldr	r4, [r1, #20]
 80029f0:	4a0d      	ldr	r2, [pc, #52]	@ (8002a28 <rand+0x78>)
 80029f2:	4358      	muls	r0, r3
 80029f4:	fb02 0004 	mla	r0, r2, r4, r0
 80029f8:	fba3 3202 	umull	r3, r2, r3, r2
 80029fc:	3301      	adds	r3, #1
 80029fe:	eb40 0002 	adc.w	r0, r0, r2
 8002a02:	e9c1 3004 	strd	r3, r0, [r1, #16]
 8002a06:	f020 4000 	bic.w	r0, r0, #2147483648	@ 0x80000000
 8002a0a:	bd10      	pop	{r4, pc}
 8002a0c:	2000003c 	.word	0x2000003c
 8002a10:	08004a08 	.word	0x08004a08
 8002a14:	08004a1f 	.word	0x08004a1f
 8002a18:	abcd330e 	.word	0xabcd330e
 8002a1c:	e66d1234 	.word	0xe66d1234
 8002a20:	0005deec 	.word	0x0005deec
 8002a24:	5851f42d 	.word	0x5851f42d
 8002a28:	4c957f2d 	.word	0x4c957f2d

08002a2c <std>:
 8002a2c:	2300      	movs	r3, #0
 8002a2e:	b510      	push	{r4, lr}
 8002a30:	4604      	mov	r4, r0
 8002a32:	e9c0 3300 	strd	r3, r3, [r0]
 8002a36:	e9c0 3304 	strd	r3, r3, [r0, #16]
 8002a3a:	6083      	str	r3, [r0, #8]
 8002a3c:	8181      	strh	r1, [r0, #12]
 8002a3e:	6643      	str	r3, [r0, #100]	@ 0x64
 8002a40:	81c2      	strh	r2, [r0, #14]
 8002a42:	6183      	str	r3, [r0, #24]
 8002a44:	4619      	mov	r1, r3
 8002a46:	2208      	movs	r2, #8
 8002a48:	305c      	adds	r0, #92	@ 0x5c
 8002a4a:	f000 f8f4 	bl	8002c36 <memset>
 8002a4e:	4b0d      	ldr	r3, [pc, #52]	@ (8002a84 <std+0x58>)
 8002a50:	6263      	str	r3, [r4, #36]	@ 0x24
 8002a52:	4b0d      	ldr	r3, [pc, #52]	@ (8002a88 <std+0x5c>)
 8002a54:	62a3      	str	r3, [r4, #40]	@ 0x28
 8002a56:	4b0d      	ldr	r3, [pc, #52]	@ (8002a8c <std+0x60>)
 8002a58:	62e3      	str	r3, [r4, #44]	@ 0x2c
 8002a5a:	4b0d      	ldr	r3, [pc, #52]	@ (8002a90 <std+0x64>)
 8002a5c:	6323      	str	r3, [r4, #48]	@ 0x30
 8002a5e:	4b0d      	ldr	r3, [pc, #52]	@ (8002a94 <std+0x68>)
 8002a60:	6224      	str	r4, [r4, #32]
 8002a62:	429c      	cmp	r4, r3
 8002a64:	d006      	beq.n	8002a74 <std+0x48>
 8002a66:	f103 0268 	add.w	r2, r3, #104	@ 0x68
 8002a6a:	4294      	cmp	r4, r2
 8002a6c:	d002      	beq.n	8002a74 <std+0x48>
 8002a6e:	33d0      	adds	r3, #208	@ 0xd0
 8002a70:	429c      	cmp	r4, r3
 8002a72:	d105      	bne.n	8002a80 <std+0x54>
 8002a74:	f104 0058 	add.w	r0, r4, #88	@ 0x58
 8002a78:	e8bd 4010 	ldmia.w	sp!, {r4, lr}
 8002a7c:	f000 b954 	b.w	8002d28 <__retarget_lock_init_recursive>
 8002a80:	bd10      	pop	{r4, pc}
 8002a82:	bf00      	nop
 8002a84:	08002bb1 	.word	0x08002bb1
 8002a88:	08002bd3 	.word	0x08002bd3
 8002a8c:	08002c0b 	.word	0x08002c0b
 8002a90:	08002c2f 	.word	0x08002c2f
 8002a94:	200004d0 	.word	0x200004d0

08002a98 <stdio_exit_handler>:
 8002a98:	4a02      	ldr	r2, [pc, #8]	@ (8002aa4 <stdio_exit_handler+0xc>)
 8002a9a:	4903      	ldr	r1, [pc, #12]	@ (8002aa8 <stdio_exit_handler+0x10>)
 8002a9c:	4803      	ldr	r0, [pc, #12]	@ (8002aac <stdio_exit_handler+0x14>)
 8002a9e:	f000 b869 	b.w	8002b74 <_fwalk_sglue>
 8002aa2:	bf00      	nop
 8002aa4:	20000030 	.word	0x20000030
 8002aa8:	08003075 	.word	0x08003075
 8002aac:	20000040 	.word	0x20000040

08002ab0 <cleanup_stdio>:
 8002ab0:	6841      	ldr	r1, [r0, #4]
 8002ab2:	4b0c      	ldr	r3, [pc, #48]	@ (8002ae4 <cleanup_stdio+0x34>)
 8002ab4:	4299      	cmp	r1, r3
 8002ab6:	b510      	push	{r4, lr}
 8002ab8:	4604      	mov	r4, r0
 8002aba:	d001      	beq.n	8002ac0 <cleanup_stdio+0x10>
 8002abc:	f000 fada 	bl	8003074 <_fflush_r>
 8002ac0:	68a1      	ldr	r1, [r4, #8]
 8002ac2:	4b09      	ldr	r3, [pc, #36]	@ (8002ae8 <cleanup_stdio+0x38>)
 8002ac4:	4299      	cmp	r1, r3
 8002ac6:	d002      	beq.n	8002ace <cleanup_stdio+0x1e>
 8002ac8:	4620      	mov	r0, r4
 8002aca:	f000 fad3 	bl	8003074 <_fflush_r>
 8002ace:	68e1      	ldr	r1, [r4, #12]
 8002ad0:	4b06      	ldr	r3, [pc, #24]	@ (8002aec <cleanup_stdio+0x3c>)
 8002ad2:	4299      	cmp	r1, r3
 8002ad4:	d004      	beq.n	8002ae0 <cleanup_stdio+0x30>
 8002ad6:	4620      	mov	r0, r4
 8002ad8:	e8bd 4010 	ldmia.w	sp!, {r4, lr}
 8002adc:	f000 baca 	b.w	8003074 <_fflush_r>
 8002ae0:	bd10      	pop	{r4, pc}
 8002ae2:	bf00      	nop
 8002ae4:	200004d0 	.word	0x200004d0
 8002ae8:	20000538 	.word	0x20000538
 8002aec:	200005a0 	.word	0x200005a0

08002af0 <global_stdio_init.part.0>:
 8002af0:	b510      	push	{r4, lr}
 8002af2:	4b0b      	ldr	r3, [pc, #44]	@ (8002b20 <global_stdio_init.part.0+0x30>)
 8002af4:	4c0b      	ldr	r4, [pc, #44]	@ (8002b24 <global_stdio_init.part.0+0x34>)
 8002af6:	4a0c      	ldr	r2, [pc, #48]	@ (8002b28 <global_stdio_init.part.0+0x38>)
 8002af8:	601a      	str	r2, [r3, #0]
 8002afa:	4620      	mov	r0, r4
 8002afc:	2200      	movs	r2, #0
 8002afe:	2104      	movs	r1, #4
 8002b00:	f7ff ff94 	bl	8002a2c <std>
 8002b04:	f104 0068 	add.w	r0, r4, #104	@ 0x68
 8002b08:	2201      	movs	r2, #1
 8002b0a:	2109      	movs	r1, #9
 8002b0c:	f7ff ff8e 	bl	8002a2c <std>
 8002b10:	f104 00d0 	add.w	r0, r4, #208	@ 0xd0
 8002b14:	2202      	movs	r2, #2
 8002b16:	e8bd 4010 	ldmia.w	sp!, {r4, lr}
 8002b1a:	2112      	movs	r1, #18
 8002b1c:	f7ff bf86 	b.w	8002a2c <std>
 8002b20:	20000608 	.word	0x20000608
 8002b24:	200004d0 	.word	0x200004d0
 8002b28:	08002a99 	.word	0x08002a99

08002b2c <__sfp_lock_acquire>:
 8002b2c:	4801      	ldr	r0, [pc, #4]	@ (8002b34 <__sfp_lock_acquire+0x8>)
 8002b2e:	f000 b8fc 	b.w	8002d2a <__retarget_lock_acquire_recursive>
 8002b32:	bf00      	nop
 8002b34:	20000611 	.word	0x20000611

08002b38 <__sfp_lock_release>:
 8002b38:	4801      	ldr	r0, [pc, #4]	@ (8002b40 <__sfp_lock_release+0x8>)
 8002b3a:	f000 b8f7 	b.w	8002d2c <__retarget_lock_release_recursive>
 8002b3e:	bf00      	nop
 8002b40:	20000611 	.word	0x20000611

08002b44 <__sinit>:
 8002b44:	b510      	push	{r4, lr}
 8002b46:	4604      	mov	r4, r0
 8002b48:	f7ff fff0 	bl	8002b2c <__sfp_lock_acquire>
 8002b4c:	6a23      	ldr	r3, [r4, #32]
 8002b4e:	b11b      	cbz	r3, 8002b58 <__sinit+0x14>
 8002b50:	e8bd 4010 	ldmia.w	sp!, {r4, lr}
 8002b54:	f7ff bff0 	b.w	8002b38 <__sfp_lock_release>
 8002b58:	4b04      	ldr	r3, [pc, #16]	@ (8002b6c <__sinit+0x28>)
 8002b5a:	6223      	str	r3, [r4, #32]
 8002b5c:	4b04      	ldr	r3, [pc, #16]	@ (8002b70 <__sinit+0x2c>)
 8002b5e:	681b      	ldr	r3, [r3, #0]
 8002b60:	2b00      	cmp	r3, #0
 8002b62:	d1f5      	bne.n	8002b50 <__sinit+0xc>
 8002b64:	f7ff ffc4 	bl	8002af0 <global_stdio_init.part.0>
 8002b68:	e7f2      	b.n	8002b50 <__sinit+0xc>
 8002b6a:	bf00      	nop
 8002b6c:	08002ab1 	.word	0x08002ab1
 8002b70:	20000608 	.word	0x20000608

08002b74 <_fwalk_sglue>:
 8002b74:	e92d 43f8 	stmdb	sp!, {r3, r4, r5, r6, r7, r8, r9, lr}
 8002b78:	4607      	mov	r7, r0
 8002b7a:	4688      	mov	r8, r1
 8002b7c:	4614      	mov	r4, r2
 8002b7e:	2600      	movs	r6, #0
 8002b80:	e9d4 9501 	ldrd	r9, r5, [r4, #4]
 8002b84:	f1b9 0901 	subs.w	r9, r9, #1
 8002b88:	d505      	bpl.n	8002b96 <_fwalk_sglue+0x22>
 8002b8a:	6824      	ldr	r4, [r4, #0]
 8002b8c:	2c00      	cmp	r4, #0
 8002b8e:	d1f7      	bne.n	8002b80 <_fwalk_sglue+0xc>
 8002b90:	4630      	mov	r0, r6
 8002b92:	e8bd 83f8 	ldmia.w	sp!, {r3, r4, r5, r6, r7, r8, r9, pc}
 8002b96:	89ab      	ldrh	r3, [r5, #12]
 8002b98:	2b01      	cmp	r3, #1
 8002b9a:	d907      	bls.n	8002bac <_fwalk_sglue+0x38>
 8002b9c:	f9b5 300e 	ldrsh.w	r3, [r5, #14]
 8002ba0:	3301      	adds	r3, #1
 8002ba2:	d003      	beq.n	8002bac <_fwalk_sglue+0x38>
 8002ba4:	4629      	mov	r1, r5
 8002ba6:	4638      	mov	r0, r7
 8002ba8:	47c0      	blx	r8
 8002baa:	4306      	orrs	r6, r0
 8002bac:	3568      	adds	r5, #104	@ 0x68
 8002bae:	e7e9      	b.n	8002b84 <_fwalk_sglue+0x10>

08002bb0 <__sread>:
 8002bb0:	b510      	push	{r4, lr}
 8002bb2:	460c      	mov	r4, r1
 8002bb4:	f9b1 100e 	ldrsh.w	r1, [r1, #14]
 8002bb8:	f000 f868 	bl	8002c8c <_read_r>
 8002bbc:	2800      	cmp	r0, #0
 8002bbe:	bfab      	itete	ge
 8002bc0:	6d63      	ldrge	r3, [r4, #84]	@ 0x54
 8002bc2:	89a3      	ldrhlt	r3, [r4, #12]
 8002bc4:	181b      	addge	r3, r3, r0
 8002bc6:	f423 5380 	biclt.w	r3, r3, #4096	@ 0x1000
 8002bca:	bfac      	ite	ge
 8002bcc:	6563      	strge	r3, [r4, #84]	@ 0x54
 8002bce:	81a3      	strhlt	r3, [r4, #12]
 8002bd0:	bd10      	pop	{r4, pc}

08002bd2 <__swrite>:
 8002bd2:	e92d 41f0 	stmdb	sp!, {r4, r5, r6, r7, r8, lr}
 8002bd6:	461f      	mov	r7, r3
 8002bd8:	898b      	ldrh	r3, [r1, #12]
 8002bda:	05db      	lsls	r3, r3, #23
 8002bdc:	4605      	mov	r5, r0
 8002bde:	460c      	mov	r4, r1
 8002be0:	4616      	mov	r6, r2
 8002be2:	d505      	bpl.n	8002bf0 <__swrite+0x1e>
 8002be4:	f9b1 100e 	ldrsh.w	r1, [r1, #14]
 8002be8:	2302      	movs	r3, #2
 8002bea:	2200      	movs	r2, #0
 8002bec:	f000 f83c 	bl	8002c68 <_lseek_r>
 8002bf0:	89a3      	ldrh	r3, [r4, #12]
 8002bf2:	f9b4 100e 	ldrsh.w	r1, [r4, #14]
 8002bf6:	f423 5380 	bic.w	r3, r3, #4096	@ 0x1000
 8002bfa:	81a3      	strh	r3, [r4, #12]
 8002bfc:	4632      	mov	r2, r6
 8002bfe:	463b      	mov	r3, r7
 8002c00:	4628      	mov	r0, r5
 8002c02:	e8bd 41f0 	ldmia.w	sp!, {r4, r5, r6, r7, r8, lr}
 8002c06:	f000 b853 	b.w	8002cb0 <_write_r>

08002c0a <__sseek>:
 8002c0a:	b510      	push	{r4, lr}
 8002c0c:	460c      	mov	r4, r1
 8002c0e:	f9b1 100e 	ldrsh.w	r1, [r1, #14]
 8002c12:	f000 f829 	bl	8002c68 <_lseek_r>
 8002c16:	1c43      	adds	r3, r0, #1
 8002c18:	89a3      	ldrh	r3, [r4, #12]
 8002c1a:	bf15      	itete	ne
 8002c1c:	6560      	strne	r0, [r4, #84]	@ 0x54
 8002c1e:	f423 5380 	biceq.w	r3, r3, #4096	@ 0x1000
 8002c22:	f443 5380 	orrne.w	r3, r3, #4096	@ 0x1000
 8002c26:	81a3      	strheq	r3, [r4, #12]
 8002c28:	bf18      	it	ne
 8002c2a:	81a3      	strhne	r3, [r4, #12]
 8002c2c:	bd10      	pop	{r4, pc}

08002c2e <__sclose>:
 8002c2e:	f9b1 100e 	ldrsh.w	r1, [r1, #14]
 8002c32:	f000 b809 	b.w	8002c48 <_close_r>

08002c36 <memset>:
 8002c36:	4402      	add	r2, r0
 8002c38:	4603      	mov	r3, r0
 8002c3a:	4293      	cmp	r3, r2
 8002c3c:	d100      	bne.n	8002c40 <memset+0xa>
 8002c3e:	4770      	bx	lr
 8002c40:	f803 1b01 	strb.w	r1, [r3], #1
 8002c44:	e7f9      	b.n	8002c3a <memset+0x4>
	...

08002c48 <_close_r>:
 8002c48:	b538      	push	{r3, r4, r5, lr}
 8002c4a:	4d06      	ldr	r5, [pc, #24]	@ (8002c64 <_close_r+0x1c>)
 8002c4c:	2300      	movs	r3, #0
 8002c4e:	4604      	mov	r4, r0
 8002c50:	4608      	mov	r0, r1
 8002c52:	602b      	str	r3, [r5, #0]
 8002c54:	f7fe fc78 	bl	8001548 <_close>
 8002c58:	1c43      	adds	r3, r0, #1
 8002c5a:	d102      	bne.n	8002c62 <_close_r+0x1a>
 8002c5c:	682b      	ldr	r3, [r5, #0]
 8002c5e:	b103      	cbz	r3, 8002c62 <_close_r+0x1a>
 8002c60:	6023      	str	r3, [r4, #0]
 8002c62:	bd38      	pop	{r3, r4, r5, pc}
 8002c64:	2000060c 	.word	0x2000060c

08002c68 <_lseek_r>:
 8002c68:	b538      	push	{r3, r4, r5, lr}
 8002c6a:	4d07      	ldr	r5, [pc, #28]	@ (8002c88 <_lseek_r+0x20>)
 8002c6c:	4604      	mov	r4, r0
 8002c6e:	4608      	mov	r0, r1
 8002c70:	4611      	mov	r1, r2
 8002c72:	2200      	movs	r2, #0
 8002c74:	602a      	str	r2, [r5, #0]
 8002c76:	461a      	mov	r2, r3
 8002c78:	f7fe fc70 	bl	800155c <_lseek>
 8002c7c:	1c43      	adds	r3, r0, #1
 8002c7e:	d102      	bne.n	8002c86 <_lseek_r+0x1e>
 8002c80:	682b      	ldr	r3, [r5, #0]
 8002c82:	b103      	cbz	r3, 8002c86 <_lseek_r+0x1e>
 8002c84:	6023      	str	r3, [r4, #0]
 8002c86:	bd38      	pop	{r3, r4, r5, pc}
 8002c88:	2000060c 	.word	0x2000060c

08002c8c <_read_r>:
 8002c8c:	b538      	push	{r3, r4, r5, lr}
 8002c8e:	4d07      	ldr	r5, [pc, #28]	@ (8002cac <_read_r+0x20>)
 8002c90:	4604      	mov	r4, r0
 8002c92:	4608      	mov	r0, r1
 8002c94:	4611      	mov	r1, r2
 8002c96:	2200      	movs	r2, #0
 8002c98:	602a      	str	r2, [r5, #0]
 8002c9a:	461a      	mov	r2, r3
 8002c9c:	f7fe fc38 	bl	8001510 <_read>
 8002ca0:	1c43      	adds	r3, r0, #1
 8002ca2:	d102      	bne.n	8002caa <_read_r+0x1e>
 8002ca4:	682b      	ldr	r3, [r5, #0]
 8002ca6:	b103      	cbz	r3, 8002caa <_read_r+0x1e>
 8002ca8:	6023      	str	r3, [r4, #0]
 8002caa:	bd38      	pop	{r3, r4, r5, pc}
 8002cac:	2000060c 	.word	0x2000060c

08002cb0 <_write_r>:
 8002cb0:	b538      	push	{r3, r4, r5, lr}
 8002cb2:	4d07      	ldr	r5, [pc, #28]	@ (8002cd0 <_write_r+0x20>)
 8002cb4:	4604      	mov	r4, r0
 8002cb6:	4608      	mov	r0, r1
 8002cb8:	4611      	mov	r1, r2
 8002cba:	2200      	movs	r2, #0
 8002cbc:	602a      	str	r2, [r5, #0]
 8002cbe:	461a      	mov	r2, r3
 8002cc0:	f7fe fc34 	bl	800152c <_write>
 8002cc4:	1c43      	adds	r3, r0, #1
 8002cc6:	d102      	bne.n	8002cce <_write_r+0x1e>
 8002cc8:	682b      	ldr	r3, [r5, #0]
 8002cca:	b103      	cbz	r3, 8002cce <_write_r+0x1e>
 8002ccc:	6023      	str	r3, [r4, #0]
 8002cce:	bd38      	pop	{r3, r4, r5, pc}
 8002cd0:	2000060c 	.word	0x2000060c

08002cd4 <__errno>:
 8002cd4:	4b01      	ldr	r3, [pc, #4]	@ (8002cdc <__errno+0x8>)
 8002cd6:	6818      	ldr	r0, [r3, #0]
 8002cd8:	4770      	bx	lr
 8002cda:	bf00      	nop
 8002cdc:	2000003c 	.word	0x2000003c

08002ce0 <__libc_init_array>:
 8002ce0:	b570      	push	{r4, r5, r6, lr}
 8002ce2:	4d0d      	ldr	r5, [pc, #52]	@ (8002d18 <__libc_init_array+0x38>)
 8002ce4:	4c0d      	ldr	r4, [pc, #52]	@ (8002d1c <__libc_init_array+0x3c>)
 8002ce6:	1b64      	subs	r4, r4, r5
 8002ce8:	10a4      	asrs	r4, r4, #2
 8002cea:	2600      	movs	r6, #0
 8002cec:	42a6      	cmp	r6, r4
 8002cee:	d109      	bne.n	8002d04 <__libc_init_array+0x24>
 8002cf0:	4d0b      	ldr	r5, [pc, #44]	@ (8002d20 <__libc_init_array+0x40>)
 8002cf2:	4c0c      	ldr	r4, [pc, #48]	@ (8002d24 <__libc_init_array+0x44>)
 8002cf4:	f001 fe5c 	bl	80049b0 <_init>
 8002cf8:	1b64      	subs	r4, r4, r5
 8002cfa:	10a4      	asrs	r4, r4, #2
 8002cfc:	2600      	movs	r6, #0
 8002cfe:	42a6      	cmp	r6, r4
 8002d00:	d105      	bne.n	8002d0e <__libc_init_array+0x2e>
 8002d02:	bd70      	pop	{r4, r5, r6, pc}
 8002d04:	f855 3b04 	ldr.w	r3, [r5], #4
 8002d08:	4798      	blx	r3
 8002d0a:	3601      	adds	r6, #1
 8002d0c:	e7ee      	b.n	8002cec <__libc_init_array+0xc>
 8002d0e:	f855 3b04 	ldr.w	r3, [r5], #4
 8002d12:	4798      	blx	r3
 8002d14:	3601      	adds	r6, #1
 8002d16:	e7f2      	b.n	8002cfe <__libc_init_array+0x1e>
 8002d18:	08004cc8 	.word	0x08004cc8
 8002d1c:	08004cc8 	.word	0x08004cc8
 8002d20:	08004cc8 	.word	0x08004cc8
 8002d24:	08004ccc 	.word	0x08004ccc

08002d28 <__retarget_lock_init_recursive>:
 8002d28:	4770      	bx	lr

08002d2a <__retarget_lock_acquire_recursive>:
 8002d2a:	4770      	bx	lr

08002d2c <__retarget_lock_release_recursive>:
 8002d2c:	4770      	bx	lr
	...

08002d30 <__assert_func>:
 8002d30:	b51f      	push	{r0, r1, r2, r3, r4, lr}
 8002d32:	4614      	mov	r4, r2
 8002d34:	461a      	mov	r2, r3
 8002d36:	4b09      	ldr	r3, [pc, #36]	@ (8002d5c <__assert_func+0x2c>)
 8002d38:	681b      	ldr	r3, [r3, #0]
 8002d3a:	4605      	mov	r5, r0
 8002d3c:	68d8      	ldr	r0, [r3, #12]
 8002d3e:	b14c      	cbz	r4, 8002d54 <__assert_func+0x24>
 8002d40:	4b07      	ldr	r3, [pc, #28]	@ (8002d60 <__assert_func+0x30>)
 8002d42:	9100      	str	r1, [sp, #0]
 8002d44:	e9cd 3401 	strd	r3, r4, [sp, #4]
 8002d48:	4906      	ldr	r1, [pc, #24]	@ (8002d64 <__assert_func+0x34>)
 8002d4a:	462b      	mov	r3, r5
 8002d4c:	f000 f9ba 	bl	80030c4 <fiprintf>
 8002d50:	f000 f9da 	bl	8003108 <abort>
 8002d54:	4b04      	ldr	r3, [pc, #16]	@ (8002d68 <__assert_func+0x38>)
 8002d56:	461c      	mov	r4, r3
 8002d58:	e7f3      	b.n	8002d42 <__assert_func+0x12>
 8002d5a:	bf00      	nop
 8002d5c:	2000003c 	.word	0x2000003c
 8002d60:	08004a77 	.word	0x08004a77
 8002d64:	08004a84 	.word	0x08004a84
 8002d68:	08004ab2 	.word	0x08004ab2

08002d6c <_free_r>:
 8002d6c:	b538      	push	{r3, r4, r5, lr}
 8002d6e:	4605      	mov	r5, r0
 8002d70:	2900      	cmp	r1, #0
 8002d72:	d041      	beq.n	8002df8 <_free_r+0x8c>
 8002d74:	f851 3c04 	ldr.w	r3, [r1, #-4]
 8002d78:	1f0c      	subs	r4, r1, #4
 8002d7a:	2b00      	cmp	r3, #0
 8002d7c:	bfb8      	it	lt
 8002d7e:	18e4      	addlt	r4, r4, r3
 8002d80:	f000 f8e8 	bl	8002f54 <__malloc_lock>
 8002d84:	4a1d      	ldr	r2, [pc, #116]	@ (8002dfc <_free_r+0x90>)
 8002d86:	6813      	ldr	r3, [r2, #0]
 8002d88:	b933      	cbnz	r3, 8002d98 <_free_r+0x2c>
 8002d8a:	6063      	str	r3, [r4, #4]
 8002d8c:	6014      	str	r4, [r2, #0]
 8002d8e:	4628      	mov	r0, r5
 8002d90:	e8bd 4038 	ldmia.w	sp!, {r3, r4, r5, lr}
 8002d94:	f000 b8e4 	b.w	8002f60 <__malloc_unlock>
 8002d98:	42a3      	cmp	r3, r4
 8002d9a:	d908      	bls.n	8002dae <_free_r+0x42>
 8002d9c:	6820      	ldr	r0, [r4, #0]
 8002d9e:	1821      	adds	r1, r4, r0
 8002da0:	428b      	cmp	r3, r1
 8002da2:	bf01      	itttt	eq
 8002da4:	6819      	ldreq	r1, [r3, #0]
 8002da6:	685b      	ldreq	r3, [r3, #4]
 8002da8:	1809      	addeq	r1, r1, r0
 8002daa:	6021      	streq	r1, [r4, #0]
 8002dac:	e7ed      	b.n	8002d8a <_free_r+0x1e>
 8002dae:	461a      	mov	r2, r3
 8002db0:	685b      	ldr	r3, [r3, #4]
 8002db2:	b10b      	cbz	r3, 8002db8 <_free_r+0x4c>
 8002db4:	42a3      	cmp	r3, r4
 8002db6:	d9fa      	bls.n	8002dae <_free_r+0x42>
 8002db8:	6811      	ldr	r1, [r2, #0]
 8002dba:	1850      	adds	r0, r2, r1
 8002dbc:	42a0      	cmp	r0, r4
 8002dbe:	d10b      	bne.n	8002dd8 <_free_r+0x6c>
 8002dc0:	6820      	ldr	r0, [r4, #0]
 8002dc2:	4401      	add	r1, r0
 8002dc4:	1850      	adds	r0, r2, r1
 8002dc6:	4283      	cmp	r3, r0
 8002dc8:	6011      	str	r1, [r2, #0]
 8002dca:	d1e0      	bne.n	8002d8e <_free_r+0x22>
 8002dcc:	6818      	ldr	r0, [r3, #0]
 8002dce:	685b      	ldr	r3, [r3, #4]
 8002dd0:	6053      	str	r3, [r2, #4]
 8002dd2:	4408      	add	r0, r1
 8002dd4:	6010      	str	r0, [r2, #0]
 8002dd6:	e7da      	b.n	8002d8e <_free_r+0x22>
 8002dd8:	d902      	bls.n	8002de0 <_free_r+0x74>
 8002dda:	230c      	movs	r3, #12
 8002ddc:	602b      	str	r3, [r5, #0]
 8002dde:	e7d6      	b.n	8002d8e <_free_r+0x22>
 8002de0:	6820      	ldr	r0, [r4, #0]
 8002de2:	1821      	adds	r1, r4, r0
 8002de4:	428b      	cmp	r3, r1
 8002de6:	bf04      	itt	eq
 8002de8:	6819      	ldreq	r1, [r3, #0]
 8002dea:	685b      	ldreq	r3, [r3, #4]
 8002dec:	6063      	str	r3, [r4, #4]
 8002dee:	bf04      	itt	eq
 8002df0:	1809      	addeq	r1, r1, r0
 8002df2:	6021      	streq	r1, [r4, #0]
 8002df4:	6054      	str	r4, [r2, #4]
 8002df6:	e7ca      	b.n	8002d8e <_free_r+0x22>
 8002df8:	bd38      	pop	{r3, r4, r5, pc}
 8002dfa:	bf00      	nop
 8002dfc:	20000618 	.word	0x20000618

08002e00 <malloc>:
 8002e00:	4b02      	ldr	r3, [pc, #8]	@ (8002e0c <malloc+0xc>)
 8002e02:	4601      	mov	r1, r0
 8002e04:	6818      	ldr	r0, [r3, #0]
 8002e06:	f000 b825 	b.w	8002e54 <_malloc_r>
 8002e0a:	bf00      	nop
 8002e0c:	2000003c 	.word	0x2000003c

08002e10 <sbrk_aligned>:
 8002e10:	b570      	push	{r4, r5, r6, lr}
 8002e12:	4e0f      	ldr	r6, [pc, #60]	@ (8002e50 <sbrk_aligned+0x40>)
 8002e14:	460c      	mov	r4, r1
 8002e16:	6831      	ldr	r1, [r6, #0]
 8002e18:	4605      	mov	r5, r0
 8002e1a:	b911      	cbnz	r1, 8002e22 <sbrk_aligned+0x12>
 8002e1c:	f000 f964 	bl	80030e8 <_sbrk_r>
 8002e20:	6030      	str	r0, [r6, #0]
 8002e22:	4621      	mov	r1, r4
 8002e24:	4628      	mov	r0, r5
 8002e26:	f000 f95f 	bl	80030e8 <_sbrk_r>
 8002e2a:	1c43      	adds	r3, r0, #1
 8002e2c:	d103      	bne.n	8002e36 <sbrk_aligned+0x26>
 8002e2e:	f04f 34ff 	mov.w	r4, #4294967295
 8002e32:	4620      	mov	r0, r4
 8002e34:	bd70      	pop	{r4, r5, r6, pc}
 8002e36:	1cc4      	adds	r4, r0, #3
 8002e38:	f024 0403 	bic.w	r4, r4, #3
 8002e3c:	42a0      	cmp	r0, r4
 8002e3e:	d0f8      	beq.n	8002e32 <sbrk_aligned+0x22>
 8002e40:	1a21      	subs	r1, r4, r0
 8002e42:	4628      	mov	r0, r5
 8002e44:	f000 f950 	bl	80030e8 <_sbrk_r>
 8002e48:	3001      	adds	r0, #1
 8002e4a:	d1f2      	bne.n	8002e32 <sbrk_aligned+0x22>
 8002e4c:	e7ef      	b.n	8002e2e <sbrk_aligned+0x1e>
 8002e4e:	bf00      	nop
 8002e50:	20000614 	.word	0x20000614

08002e54 <_malloc_r>:
 8002e54:	e92d 43f8 	stmdb	sp!, {r3, r4, r5, r6, r7, r8, r9, lr}
 8002e58:	1ccd      	adds	r5, r1, #3
 8002e5a:	f025 0503 	bic.w	r5, r5, #3
 8002e5e:	3508      	adds	r5, #8
 8002e60:	2d0c      	cmp	r5, #12
 8002e62:	bf38      	it	cc
 8002e64:	250c      	movcc	r5, #12
 8002e66:	2d00      	cmp	r5, #0
 8002e68:	4606      	mov	r6, r0
 8002e6a:	db01      	blt.n	8002e70 <_malloc_r+0x1c>
 8002e6c:	42a9      	cmp	r1, r5
 8002e6e:	d904      	bls.n	8002e7a <_malloc_r+0x26>
 8002e70:	230c      	movs	r3, #12
 8002e72:	6033      	str	r3, [r6, #0]
 8002e74:	2000      	movs	r0, #0
 8002e76:	e8bd 83f8 	ldmia.w	sp!, {r3, r4, r5, r6, r7, r8, r9, pc}
 8002e7a:	f8df 80d4 	ldr.w	r8, [pc, #212]	@ 8002f50 <_malloc_r+0xfc>
 8002e7e:	f000 f869 	bl	8002f54 <__malloc_lock>
 8002e82:	f8d8 3000 	ldr.w	r3, [r8]
 8002e86:	461c      	mov	r4, r3
 8002e88:	bb44      	cbnz	r4, 8002edc <_malloc_r+0x88>
 8002e8a:	4629      	mov	r1, r5
 8002e8c:	4630      	mov	r0, r6
 8002e8e:	f7ff ffbf 	bl	8002e10 <sbrk_aligned>
 8002e92:	1c43      	adds	r3, r0, #1
 8002e94:	4604      	mov	r4, r0
 8002e96:	d158      	bne.n	8002f4a <_malloc_r+0xf6>
 8002e98:	f8d8 4000 	ldr.w	r4, [r8]
 8002e9c:	4627      	mov	r7, r4
 8002e9e:	2f00      	cmp	r7, #0
 8002ea0:	d143      	bne.n	8002f2a <_malloc_r+0xd6>
 8002ea2:	2c00      	cmp	r4, #0
 8002ea4:	d04b      	beq.n	8002f3e <_malloc_r+0xea>
 8002ea6:	6823      	ldr	r3, [r4, #0]
 8002ea8:	4639      	mov	r1, r7
 8002eaa:	4630      	mov	r0, r6
 8002eac:	eb04 0903 	add.w	r9, r4, r3
 8002eb0:	f000 f91a 	bl	80030e8 <_sbrk_r>
 8002eb4:	4581      	cmp	r9, r0
 8002eb6:	d142      	bne.n	8002f3e <_malloc_r+0xea>
 8002eb8:	6821      	ldr	r1, [r4, #0]
 8002eba:	1a6d      	subs	r5, r5, r1
 8002ebc:	4629      	mov	r1, r5
 8002ebe:	4630      	mov	r0, r6
 8002ec0:	f7ff ffa6 	bl	8002e10 <sbrk_aligned>
 8002ec4:	3001      	adds	r0, #1
 8002ec6:	d03a      	beq.n	8002f3e <_malloc_r+0xea>
 8002ec8:	6823      	ldr	r3, [r4, #0]
 8002eca:	442b      	add	r3, r5
 8002ecc:	6023      	str	r3, [r4, #0]
 8002ece:	f8d8 3000 	ldr.w	r3, [r8]
 8002ed2:	685a      	ldr	r2, [r3, #4]
 8002ed4:	bb62      	cbnz	r2, 8002f30 <_malloc_r+0xdc>
 8002ed6:	f8c8 7000 	str.w	r7, [r8]
 8002eda:	e00f      	b.n	8002efc <_malloc_r+0xa8>
 8002edc:	6822      	ldr	r2, [r4, #0]
 8002ede:	1b52      	subs	r2, r2, r5
 8002ee0:	d420      	bmi.n	8002f24 <_malloc_r+0xd0>
 8002ee2:	2a0b      	cmp	r2, #11
 8002ee4:	d917      	bls.n	8002f16 <_malloc_r+0xc2>
 8002ee6:	1961      	adds	r1, r4, r5
 8002ee8:	42a3      	cmp	r3, r4
 8002eea:	6025      	str	r5, [r4, #0]
 8002eec:	bf18      	it	ne
 8002eee:	6059      	strne	r1, [r3, #4]
 8002ef0:	6863      	ldr	r3, [r4, #4]
 8002ef2:	bf08      	it	eq
 8002ef4:	f8c8 1000 	streq.w	r1, [r8]
 8002ef8:	5162      	str	r2, [r4, r5]
 8002efa:	604b      	str	r3, [r1, #4]
 8002efc:	4630      	mov	r0, r6
 8002efe:	f000 f82f 	bl	8002f60 <__malloc_unlock>
 8002f02:	f104 000b 	add.w	r0, r4, #11
 8002f06:	1d23      	adds	r3, r4, #4
 8002f08:	f020 0007 	bic.w	r0, r0, #7
 8002f0c:	1ac2      	subs	r2, r0, r3
 8002f0e:	bf1c      	itt	ne
 8002f10:	1a1b      	subne	r3, r3, r0
 8002f12:	50a3      	strne	r3, [r4, r2]
 8002f14:	e7af      	b.n	8002e76 <_malloc_r+0x22>
 8002f16:	6862      	ldr	r2, [r4, #4]
 8002f18:	42a3      	cmp	r3, r4
 8002f1a:	bf0c      	ite	eq
 8002f1c:	f8c8 2000 	streq.w	r2, [r8]
 8002f20:	605a      	strne	r2, [r3, #4]
 8002f22:	e7eb      	b.n	8002efc <_malloc_r+0xa8>
 8002f24:	4623      	mov	r3, r4
 8002f26:	6864      	ldr	r4, [r4, #4]
 8002f28:	e7ae      	b.n	8002e88 <_malloc_r+0x34>
 8002f2a:	463c      	mov	r4, r7
 8002f2c:	687f      	ldr	r7, [r7, #4]
 8002f2e:	e7b6      	b.n	8002e9e <_malloc_r+0x4a>
 8002f30:	461a      	mov	r2, r3
 8002f32:	685b      	ldr	r3, [r3, #4]
 8002f34:	42a3      	cmp	r3, r4
 8002f36:	d1fb      	bne.n	8002f30 <_malloc_r+0xdc>
 8002f38:	2300      	movs	r3, #0
 8002f3a:	6053      	str	r3, [r2, #4]
 8002f3c:	e7de      	b.n	8002efc <_malloc_r+0xa8>
 8002f3e:	230c      	movs	r3, #12
 8002f40:	6033      	str	r3, [r6, #0]
 8002f42:	4630      	mov	r0, r6
 8002f44:	f000 f80c 	bl	8002f60 <__malloc_unlock>
 8002f48:	e794      	b.n	8002e74 <_malloc_r+0x20>
 8002f4a:	6005      	str	r5, [r0, #0]
 8002f4c:	e7d6      	b.n	8002efc <_malloc_r+0xa8>
 8002f4e:	bf00      	nop
 8002f50:	20000618 	.word	0x20000618

08002f54 <__malloc_lock>:
 8002f54:	4801      	ldr	r0, [pc, #4]	@ (8002f5c <__malloc_lock+0x8>)
 8002f56:	f7ff bee8 	b.w	8002d2a <__retarget_lock_acquire_recursive>
 8002f5a:	bf00      	nop
 8002f5c:	20000610 	.word	0x20000610

08002f60 <__malloc_unlock>:
 8002f60:	4801      	ldr	r0, [pc, #4]	@ (8002f68 <__malloc_unlock+0x8>)
 8002f62:	f7ff bee3 	b.w	8002d2c <__retarget_lock_release_recursive>
 8002f66:	bf00      	nop
 8002f68:	20000610 	.word	0x20000610

08002f6c <__sflush_r>:
 8002f6c:	f9b1 200c 	ldrsh.w	r2, [r1, #12]
 8002f70:	e92d 41f0 	stmdb	sp!, {r4, r5, r6, r7, r8, lr}
 8002f74:	0716      	lsls	r6, r2, #28
 8002f76:	4605      	mov	r5, r0
 8002f78:	460c      	mov	r4, r1
 8002f7a:	d454      	bmi.n	8003026 <__sflush_r+0xba>
 8002f7c:	684b      	ldr	r3, [r1, #4]
 8002f7e:	2b00      	cmp	r3, #0
 8002f80:	dc02      	bgt.n	8002f88 <__sflush_r+0x1c>
 8002f82:	6c0b      	ldr	r3, [r1, #64]	@ 0x40
 8002f84:	2b00      	cmp	r3, #0
 8002f86:	dd48      	ble.n	800301a <__sflush_r+0xae>
 8002f88:	6ae6      	ldr	r6, [r4, #44]	@ 0x2c
 8002f8a:	2e00      	cmp	r6, #0
 8002f8c:	d045      	beq.n	800301a <__sflush_r+0xae>
 8002f8e:	2300      	movs	r3, #0
 8002f90:	f412 5280 	ands.w	r2, r2, #4096	@ 0x1000
 8002f94:	682f      	ldr	r7, [r5, #0]
 8002f96:	6a21      	ldr	r1, [r4, #32]
 8002f98:	602b      	str	r3, [r5, #0]
 8002f9a:	d030      	beq.n	8002ffe <__sflush_r+0x92>
 8002f9c:	6d62      	ldr	r2, [r4, #84]	@ 0x54
 8002f9e:	89a3      	ldrh	r3, [r4, #12]
 8002fa0:	0759      	lsls	r1, r3, #29
 8002fa2:	d505      	bpl.n	8002fb0 <__sflush_r+0x44>
 8002fa4:	6863      	ldr	r3, [r4, #4]
 8002fa6:	1ad2      	subs	r2, r2, r3
 8002fa8:	6b63      	ldr	r3, [r4, #52]	@ 0x34
 8002faa:	b10b      	cbz	r3, 8002fb0 <__sflush_r+0x44>
 8002fac:	6c23      	ldr	r3, [r4, #64]	@ 0x40
 8002fae:	1ad2      	subs	r2, r2, r3
 8002fb0:	2300      	movs	r3, #0
 8002fb2:	6ae6      	ldr	r6, [r4, #44]	@ 0x2c
 8002fb4:	6a21      	ldr	r1, [r4, #32]
 8002fb6:	4628      	mov	r0, r5
 8002fb8:	47b0      	blx	r6
 8002fba:	1c43      	adds	r3, r0, #1
 8002fbc:	89a3      	ldrh	r3, [r4, #12]
 8002fbe:	d106      	bne.n	8002fce <__sflush_r+0x62>
 8002fc0:	6829      	ldr	r1, [r5, #0]
 8002fc2:	291d      	cmp	r1, #29
 8002fc4:	d82b      	bhi.n	800301e <__sflush_r+0xb2>
 8002fc6:	4a2a      	ldr	r2, [pc, #168]	@ (8003070 <__sflush_r+0x104>)
 8002fc8:	40ca      	lsrs	r2, r1
 8002fca:	07d6      	lsls	r6, r2, #31
 8002fcc:	d527      	bpl.n	800301e <__sflush_r+0xb2>
 8002fce:	2200      	movs	r2, #0
 8002fd0:	6062      	str	r2, [r4, #4]
 8002fd2:	04d9      	lsls	r1, r3, #19
 8002fd4:	6922      	ldr	r2, [r4, #16]
 8002fd6:	6022      	str	r2, [r4, #0]
 8002fd8:	d504      	bpl.n	8002fe4 <__sflush_r+0x78>
 8002fda:	1c42      	adds	r2, r0, #1
 8002fdc:	d101      	bne.n	8002fe2 <__sflush_r+0x76>
 8002fde:	682b      	ldr	r3, [r5, #0]
 8002fe0:	b903      	cbnz	r3, 8002fe4 <__sflush_r+0x78>
 8002fe2:	6560      	str	r0, [r4, #84]	@ 0x54
 8002fe4:	6b61      	ldr	r1, [r4, #52]	@ 0x34
 8002fe6:	602f      	str	r7, [r5, #0]
 8002fe8:	b1b9      	cbz	r1, 800301a <__sflush_r+0xae>
 8002fea:	f104 0344 	add.w	r3, r4, #68	@ 0x44
 8002fee:	4299      	cmp	r1, r3
 8002ff0:	d002      	beq.n	8002ff8 <__sflush_r+0x8c>
 8002ff2:	4628      	mov	r0, r5
 8002ff4:	f7ff feba 	bl	8002d6c <_free_r>
 8002ff8:	2300      	movs	r3, #0
 8002ffa:	6363      	str	r3, [r4, #52]	@ 0x34
 8002ffc:	e00d      	b.n	800301a <__sflush_r+0xae>
 8002ffe:	2301      	movs	r3, #1
 8003000:	4628      	mov	r0, r5
 8003002:	47b0      	blx	r6
 8003004:	4602      	mov	r2, r0
 8003006:	1c50      	adds	r0, r2, #1
 8003008:	d1c9      	bne.n	8002f9e <__sflush_r+0x32>
 800300a:	682b      	ldr	r3, [r5, #0]
 800300c:	2b00      	cmp	r3, #0
 800300e:	d0c6      	beq.n	8002f9e <__sflush_r+0x32>
 8003010:	2b1d      	cmp	r3, #29
 8003012:	d001      	beq.n	8003018 <__sflush_r+0xac>
 8003014:	2b16      	cmp	r3, #22
 8003016:	d11e      	bne.n	8003056 <__sflush_r+0xea>
 8003018:	602f      	str	r7, [r5, #0]
 800301a:	2000      	movs	r0, #0
 800301c:	e022      	b.n	8003064 <__sflush_r+0xf8>
 800301e:	f043 0340 	orr.w	r3, r3, #64	@ 0x40
 8003022:	b21b      	sxth	r3, r3
 8003024:	e01b      	b.n	800305e <__sflush_r+0xf2>
 8003026:	690f      	ldr	r7, [r1, #16]
 8003028:	2f00      	cmp	r7, #0
 800302a:	d0f6      	beq.n	800301a <__sflush_r+0xae>
 800302c:	0793      	lsls	r3, r2, #30
 800302e:	680e      	ldr	r6, [r1, #0]
 8003030:	bf08      	it	eq
 8003032:	694b      	ldreq	r3, [r1, #20]
 8003034:	600f      	str	r7, [r1, #0]
 8003036:	bf18      	it	ne
 8003038:	2300      	movne	r3, #0
 800303a:	eba6 0807 	sub.w	r8, r6, r7
 800303e:	608b      	str	r3, [r1, #8]
 8003040:	f1b8 0f00 	cmp.w	r8, #0
 8003044:	dde9      	ble.n	800301a <__sflush_r+0xae>
 8003046:	6a21      	ldr	r1, [r4, #32]
 8003048:	6aa6      	ldr	r6, [r4, #40]	@ 0x28
 800304a:	4643      	mov	r3, r8
 800304c:	463a      	mov	r2, r7
 800304e:	4628      	mov	r0, r5
 8003050:	47b0      	blx	r6
 8003052:	2800      	cmp	r0, #0
 8003054:	dc08      	bgt.n	8003068 <__sflush_r+0xfc>
 8003056:	f9b4 300c 	ldrsh.w	r3, [r4, #12]
 800305a:	f043 0340 	orr.w	r3, r3, #64	@ 0x40
 800305e:	81a3      	strh	r3, [r4, #12]
 8003060:	f04f 30ff 	mov.w	r0, #4294967295
 8003064:	e8bd 81f0 	ldmia.w	sp!, {r4, r5, r6, r7, r8, pc}
 8003068:	4407      	add	r7, r0
 800306a:	eba8 0800 	sub.w	r8, r8, r0
 800306e:	e7e7      	b.n	8003040 <__sflush_r+0xd4>
 8003070:	20400001 	.word	0x20400001

08003074 <_fflush_r>:
 8003074:	b538      	push	{r3, r4, r5, lr}
 8003076:	690b      	ldr	r3, [r1, #16]
 8003078:	4605      	mov	r5, r0
 800307a:	460c      	mov	r4, r1
 800307c:	b913      	cbnz	r3, 8003084 <_fflush_r+0x10>
 800307e:	2500      	movs	r5, #0
 8003080:	4628      	mov	r0, r5
 8003082:	bd38      	pop	{r3, r4, r5, pc}
 8003084:	b118      	cbz	r0, 800308e <_fflush_r+0x1a>
 8003086:	6a03      	ldr	r3, [r0, #32]
 8003088:	b90b      	cbnz	r3, 800308e <_fflush_r+0x1a>
 800308a:	f7ff fd5b 	bl	8002b44 <__sinit>
 800308e:	f9b4 300c 	ldrsh.w	r3, [r4, #12]
 8003092:	2b00      	cmp	r3, #0
 8003094:	d0f3      	beq.n	800307e <_fflush_r+0xa>
 8003096:	6e62      	ldr	r2, [r4, #100]	@ 0x64
 8003098:	07d0      	lsls	r0, r2, #31
 800309a:	d404      	bmi.n	80030a6 <_fflush_r+0x32>
 800309c:	0599      	lsls	r1, r3, #22
 800309e:	d402      	bmi.n	80030a6 <_fflush_r+0x32>
 80030a0:	6da0      	ldr	r0, [r4, #88]	@ 0x58
 80030a2:	f7ff fe42 	bl	8002d2a <__retarget_lock_acquire_recursive>
 80030a6:	4628      	mov	r0, r5
 80030a8:	4621      	mov	r1, r4
 80030aa:	f7ff ff5f 	bl	8002f6c <__sflush_r>
 80030ae:	6e63      	ldr	r3, [r4, #100]	@ 0x64
 80030b0:	07da      	lsls	r2, r3, #31
 80030b2:	4605      	mov	r5, r0
 80030b4:	d4e4      	bmi.n	8003080 <_fflush_r+0xc>
 80030b6:	89a3      	ldrh	r3, [r4, #12]
 80030b8:	059b      	lsls	r3, r3, #22
 80030ba:	d4e1      	bmi.n	8003080 <_fflush_r+0xc>
 80030bc:	6da0      	ldr	r0, [r4, #88]	@ 0x58
 80030be:	f7ff fe35 	bl	8002d2c <__retarget_lock_release_recursive>
 80030c2:	e7dd      	b.n	8003080 <_fflush_r+0xc>

080030c4 <fiprintf>:
 80030c4:	b40e      	push	{r1, r2, r3}
 80030c6:	b503      	push	{r0, r1, lr}
 80030c8:	4601      	mov	r1, r0
 80030ca:	ab03      	add	r3, sp, #12
 80030cc:	4805      	ldr	r0, [pc, #20]	@ (80030e4 <fiprintf+0x20>)
 80030ce:	f853 2b04 	ldr.w	r2, [r3], #4
 80030d2:	6800      	ldr	r0, [r0, #0]
 80030d4:	9301      	str	r3, [sp, #4]
 80030d6:	f000 f847 	bl	8003168 <_vfiprintf_r>
 80030da:	b002      	add	sp, #8
 80030dc:	f85d eb04 	ldr.w	lr, [sp], #4
 80030e0:	b003      	add	sp, #12
 80030e2:	4770      	bx	lr
 80030e4:	2000003c 	.word	0x2000003c

080030e8 <_sbrk_r>:
 80030e8:	b538      	push	{r3, r4, r5, lr}
 80030ea:	4d06      	ldr	r5, [pc, #24]	@ (8003104 <_sbrk_r+0x1c>)
 80030ec:	2300      	movs	r3, #0
 80030ee:	4604      	mov	r4, r0
 80030f0:	4608      	mov	r0, r1
 80030f2:	602b      	str	r3, [r5, #0]
 80030f4:	f7fe fa34 	bl	8001560 <_sbrk>
 80030f8:	1c43      	adds	r3, r0, #1
 80030fa:	d102      	bne.n	8003102 <_sbrk_r+0x1a>
 80030fc:	682b      	ldr	r3, [r5, #0]
 80030fe:	b103      	cbz	r3, 8003102 <_sbrk_r+0x1a>
 8003100:	6023      	str	r3, [r4, #0]
 8003102:	bd38      	pop	{r3, r4, r5, pc}
 8003104:	2000060c 	.word	0x2000060c

08003108 <abort>:
 8003108:	b508      	push	{r3, lr}
 800310a:	2006      	movs	r0, #6
 800310c:	f000 fb8c 	bl	8003828 <raise>
 8003110:	2001      	movs	r0, #1
 8003112:	f7fe f9f7 	bl	8001504 <_exit>

08003116 <__sfputc_r>:
 8003116:	6893      	ldr	r3, [r2, #8]
 8003118:	3b01      	subs	r3, #1
 800311a:	2b00      	cmp	r3, #0
 800311c:	b410      	push	{r4}
 800311e:	6093      	str	r3, [r2, #8]
 8003120:	da08      	bge.n	8003134 <__sfputc_r+0x1e>
 8003122:	6994      	ldr	r4, [r2, #24]
 8003124:	42a3      	cmp	r3, r4
 8003126:	db01      	blt.n	800312c <__sfputc_r+0x16>
 8003128:	290a      	cmp	r1, #10
 800312a:	d103      	bne.n	8003134 <__sfputc_r+0x1e>
 800312c:	f85d 4b04 	ldr.w	r4, [sp], #4
 8003130:	f000 babe 	b.w	80036b0 <__swbuf_r>
 8003134:	6813      	ldr	r3, [r2, #0]
 8003136:	1c58      	adds	r0, r3, #1
 8003138:	6010      	str	r0, [r2, #0]
 800313a:	7019      	strb	r1, [r3, #0]
 800313c:	4608      	mov	r0, r1
 800313e:	f85d 4b04 	ldr.w	r4, [sp], #4
 8003142:	4770      	bx	lr

08003144 <__sfputs_r>:
 8003144:	b5f8      	push	{r3, r4, r5, r6, r7, lr}
 8003146:	4606      	mov	r6, r0
 8003148:	460f      	mov	r7, r1
 800314a:	4614      	mov	r4, r2
 800314c:	18d5      	adds	r5, r2, r3
 800314e:	42ac      	cmp	r4, r5
 8003150:	d101      	bne.n	8003156 <__sfputs_r+0x12>
 8003152:	2000      	movs	r0, #0
 8003154:	e007      	b.n	8003166 <__sfputs_r+0x22>
 8003156:	f814 1b01 	ldrb.w	r1, [r4], #1
 800315a:	463a      	mov	r2, r7
 800315c:	4630      	mov	r0, r6
 800315e:	f7ff ffda 	bl	8003116 <__sfputc_r>
 8003162:	1c43      	adds	r3, r0, #1
 8003164:	d1f3      	bne.n	800314e <__sfputs_r+0xa>
 8003166:	bdf8      	pop	{r3, r4, r5, r6, r7, pc}

08003168 <_vfiprintf_r>:
 8003168:	e92d 4ff0 	stmdb	sp!, {r4, r5, r6, r7, r8, r9, sl, fp, lr}
 800316c:	460d      	mov	r5, r1
 800316e:	b09d      	sub	sp, #116	@ 0x74
 8003170:	4614      	mov	r4, r2
 8003172:	4698      	mov	r8, r3
 8003174:	4606      	mov	r6, r0
 8003176:	b118      	cbz	r0, 8003180 <_vfiprintf_r+0x18>
 8003178:	6a03      	ldr	r3, [r0, #32]
 800317a:	b90b      	cbnz	r3, 8003180 <_vfiprintf_r+0x18>
 800317c:	f7ff fce2 	bl	8002b44 <__sinit>
 8003180:	6e6b      	ldr	r3, [r5, #100]	@ 0x64
 8003182:	07d9      	lsls	r1, r3, #31
 8003184:	d405      	bmi.n	8003192 <_vfiprintf_r+0x2a>
 8003186:	89ab      	ldrh	r3, [r5, #12]
 8003188:	059a      	lsls	r2, r3, #22
 800318a:	d402      	bmi.n	8003192 <_vfiprintf_r+0x2a>
 800318c:	6da8      	ldr	r0, [r5, #88]	@ 0x58
 800318e:	f7ff fdcc 	bl	8002d2a <__retarget_lock_acquire_recursive>
 8003192:	89ab      	ldrh	r3, [r5, #12]
 8003194:	071b      	lsls	r3, r3, #28
 8003196:	d501      	bpl.n	800319c <_vfiprintf_r+0x34>
 8003198:	692b      	ldr	r3, [r5, #16]
 800319a:	b99b      	cbnz	r3, 80031c4 <_vfiprintf_r+0x5c>
 800319c:	4629      	mov	r1, r5
 800319e:	4630      	mov	r0, r6
 80031a0:	f000 fac4 	bl	800372c <__swsetup_r>
 80031a4:	b170      	cbz	r0, 80031c4 <_vfiprintf_r+0x5c>
 80031a6:	6e6b      	ldr	r3, [r5, #100]	@ 0x64
 80031a8:	07dc      	lsls	r4, r3, #31
 80031aa:	d504      	bpl.n	80031b6 <_vfiprintf_r+0x4e>
 80031ac:	f04f 30ff 	mov.w	r0, #4294967295
 80031b0:	b01d      	add	sp, #116	@ 0x74
 80031b2:	e8bd 8ff0 	ldmia.w	sp!, {r4, r5, r6, r7, r8, r9, sl, fp, pc}
 80031b6:	89ab      	ldrh	r3, [r5, #12]
 80031b8:	0598      	lsls	r0, r3, #22
 80031ba:	d4f7      	bmi.n	80031ac <_vfiprintf_r+0x44>
 80031bc:	6da8      	ldr	r0, [r5, #88]	@ 0x58
 80031be:	f7ff fdb5 	bl	8002d2c <__retarget_lock_release_recursive>
 80031c2:	e7f3      	b.n	80031ac <_vfiprintf_r+0x44>
 80031c4:	2300      	movs	r3, #0
 80031c6:	9309      	str	r3, [sp, #36]	@ 0x24
 80031c8:	2320      	movs	r3, #32
 80031ca:	f88d 3029 	strb.w	r3, [sp, #41]	@ 0x29
 80031ce:	f8cd 800c 	str.w	r8, [sp, #12]
 80031d2:	2330      	movs	r3, #48	@ 0x30
 80031d4:	f8df 81ac 	ldr.w	r8, [pc, #428]	@ 8003384 <_vfiprintf_r+0x21c>
 80031d8:	f88d 302a 	strb.w	r3, [sp, #42]	@ 0x2a
 80031dc:	f04f 0901 	mov.w	r9, #1
 80031e0:	4623      	mov	r3, r4
 80031e2:	469a      	mov	sl, r3
 80031e4:	f813 2b01 	ldrb.w	r2, [r3], #1
 80031e8:	b10a      	cbz	r2, 80031ee <_vfiprintf_r+0x86>
 80031ea:	2a25      	cmp	r2, #37	@ 0x25
 80031ec:	d1f9      	bne.n	80031e2 <_vfiprintf_r+0x7a>
 80031ee:	ebba 0b04 	subs.w	fp, sl, r4
 80031f2:	d00b      	beq.n	800320c <_vfiprintf_r+0xa4>
 80031f4:	465b      	mov	r3, fp
 80031f6:	4622      	mov	r2, r4
 80031f8:	4629      	mov	r1, r5
 80031fa:	4630      	mov	r0, r6
 80031fc:	f7ff ffa2 	bl	8003144 <__sfputs_r>
 8003200:	3001      	adds	r0, #1
 8003202:	f000 80a7 	beq.w	8003354 <_vfiprintf_r+0x1ec>
 8003206:	9a09      	ldr	r2, [sp, #36]	@ 0x24
 8003208:	445a      	add	r2, fp
 800320a:	9209      	str	r2, [sp, #36]	@ 0x24
 800320c:	f89a 3000 	ldrb.w	r3, [sl]
 8003210:	2b00      	cmp	r3, #0
 8003212:	f000 809f 	beq.w	8003354 <_vfiprintf_r+0x1ec>
 8003216:	2300      	movs	r3, #0
 8003218:	f04f 32ff 	mov.w	r2, #4294967295
 800321c:	e9cd 2305 	strd	r2, r3, [sp, #20]
 8003220:	f10a 0a01 	add.w	sl, sl, #1
 8003224:	9304      	str	r3, [sp, #16]
 8003226:	9307      	str	r3, [sp, #28]
 8003228:	f88d 3053 	strb.w	r3, [sp, #83]	@ 0x53
 800322c:	931a      	str	r3, [sp, #104]	@ 0x68
 800322e:	4654      	mov	r4, sl
 8003230:	2205      	movs	r2, #5
 8003232:	f814 1b01 	ldrb.w	r1, [r4], #1
 8003236:	4853      	ldr	r0, [pc, #332]	@ (8003384 <_vfiprintf_r+0x21c>)
 8003238:	f7fc ffca 	bl	80001d0 <memchr>
 800323c:	9a04      	ldr	r2, [sp, #16]
 800323e:	b9d8      	cbnz	r0, 8003278 <_vfiprintf_r+0x110>
 8003240:	06d1      	lsls	r1, r2, #27
 8003242:	bf44      	itt	mi
 8003244:	2320      	movmi	r3, #32
 8003246:	f88d 3053 	strbmi.w	r3, [sp, #83]	@ 0x53
 800324a:	0713      	lsls	r3, r2, #28
 800324c:	bf44      	itt	mi
 800324e:	232b      	movmi	r3, #43	@ 0x2b
 8003250:	f88d 3053 	strbmi.w	r3, [sp, #83]	@ 0x53
 8003254:	f89a 3000 	ldrb.w	r3, [sl]
 8003258:	2b2a      	cmp	r3, #42	@ 0x2a
 800325a:	d015      	beq.n	8003288 <_vfiprintf_r+0x120>
 800325c:	9a07      	ldr	r2, [sp, #28]
 800325e:	4654      	mov	r4, sl
 8003260:	2000      	movs	r0, #0
 8003262:	f04f 0c0a 	mov.w	ip, #10
 8003266:	4621      	mov	r1, r4
 8003268:	f811 3b01 	ldrb.w	r3, [r1], #1
 800326c:	3b30      	subs	r3, #48	@ 0x30
 800326e:	2b09      	cmp	r3, #9
 8003270:	d94b      	bls.n	800330a <_vfiprintf_r+0x1a2>
 8003272:	b1b0      	cbz	r0, 80032a2 <_vfiprintf_r+0x13a>
 8003274:	9207      	str	r2, [sp, #28]
 8003276:	e014      	b.n	80032a2 <_vfiprintf_r+0x13a>
 8003278:	eba0 0308 	sub.w	r3, r0, r8
 800327c:	fa09 f303 	lsl.w	r3, r9, r3
 8003280:	4313      	orrs	r3, r2
 8003282:	9304      	str	r3, [sp, #16]
 8003284:	46a2      	mov	sl, r4
 8003286:	e7d2      	b.n	800322e <_vfiprintf_r+0xc6>
 8003288:	9b03      	ldr	r3, [sp, #12]
 800328a:	1d19      	adds	r1, r3, #4
 800328c:	681b      	ldr	r3, [r3, #0]
 800328e:	9103      	str	r1, [sp, #12]
 8003290:	2b00      	cmp	r3, #0
 8003292:	bfbb      	ittet	lt
 8003294:	425b      	neglt	r3, r3
 8003296:	f042 0202 	orrlt.w	r2, r2, #2
 800329a:	9307      	strge	r3, [sp, #28]
 800329c:	9307      	strlt	r3, [sp, #28]
 800329e:	bfb8      	it	lt
 80032a0:	9204      	strlt	r2, [sp, #16]
 80032a2:	7823      	ldrb	r3, [r4, #0]
 80032a4:	2b2e      	cmp	r3, #46	@ 0x2e
 80032a6:	d10a      	bne.n	80032be <_vfiprintf_r+0x156>
 80032a8:	7863      	ldrb	r3, [r4, #1]
 80032aa:	2b2a      	cmp	r3, #42	@ 0x2a
 80032ac:	d132      	bne.n	8003314 <_vfiprintf_r+0x1ac>
 80032ae:	9b03      	ldr	r3, [sp, #12]
 80032b0:	1d1a      	adds	r2, r3, #4
 80032b2:	681b      	ldr	r3, [r3, #0]
 80032b4:	9203      	str	r2, [sp, #12]
 80032b6:	ea43 73e3 	orr.w	r3, r3, r3, asr #31
 80032ba:	3402      	adds	r4, #2
 80032bc:	9305      	str	r3, [sp, #20]
 80032be:	f8df a0d4 	ldr.w	sl, [pc, #212]	@ 8003394 <_vfiprintf_r+0x22c>
 80032c2:	7821      	ldrb	r1, [r4, #0]
 80032c4:	2203      	movs	r2, #3
 80032c6:	4650      	mov	r0, sl
 80032c8:	f7fc ff82 	bl	80001d0 <memchr>
 80032cc:	b138      	cbz	r0, 80032de <_vfiprintf_r+0x176>
 80032ce:	9b04      	ldr	r3, [sp, #16]
 80032d0:	eba0 000a 	sub.w	r0, r0, sl
 80032d4:	2240      	movs	r2, #64	@ 0x40
 80032d6:	4082      	lsls	r2, r0
 80032d8:	4313      	orrs	r3, r2
 80032da:	3401      	adds	r4, #1
 80032dc:	9304      	str	r3, [sp, #16]
 80032de:	f814 1b01 	ldrb.w	r1, [r4], #1
 80032e2:	4829      	ldr	r0, [pc, #164]	@ (8003388 <_vfiprintf_r+0x220>)
 80032e4:	f88d 1028 	strb.w	r1, [sp, #40]	@ 0x28
 80032e8:	2206      	movs	r2, #6
 80032ea:	f7fc ff71 	bl	80001d0 <memchr>
 80032ee:	2800      	cmp	r0, #0
 80032f0:	d03f      	beq.n	8003372 <_vfiprintf_r+0x20a>
 80032f2:	4b26      	ldr	r3, [pc, #152]	@ (800338c <_vfiprintf_r+0x224>)
 80032f4:	bb1b      	cbnz	r3, 800333e <_vfiprintf_r+0x1d6>
 80032f6:	9b03      	ldr	r3, [sp, #12]
 80032f8:	3307      	adds	r3, #7
 80032fa:	f023 0307 	bic.w	r3, r3, #7
 80032fe:	3308      	adds	r3, #8
 8003300:	9303      	str	r3, [sp, #12]
 8003302:	9b09      	ldr	r3, [sp, #36]	@ 0x24
 8003304:	443b      	add	r3, r7
 8003306:	9309      	str	r3, [sp, #36]	@ 0x24
 8003308:	e76a      	b.n	80031e0 <_vfiprintf_r+0x78>
 800330a:	fb0c 3202 	mla	r2, ip, r2, r3
 800330e:	460c      	mov	r4, r1
 8003310:	2001      	movs	r0, #1
 8003312:	e7a8      	b.n	8003266 <_vfiprintf_r+0xfe>
 8003314:	2300      	movs	r3, #0
 8003316:	3401      	adds	r4, #1
 8003318:	9305      	str	r3, [sp, #20]
 800331a:	4619      	mov	r1, r3
 800331c:	f04f 0c0a 	mov.w	ip, #10
 8003320:	4620      	mov	r0, r4
 8003322:	f810 2b01 	ldrb.w	r2, [r0], #1
 8003326:	3a30      	subs	r2, #48	@ 0x30
 8003328:	2a09      	cmp	r2, #9
 800332a:	d903      	bls.n	8003334 <_vfiprintf_r+0x1cc>
 800332c:	2b00      	cmp	r3, #0
 800332e:	d0c6      	beq.n	80032be <_vfiprintf_r+0x156>
 8003330:	9105      	str	r1, [sp, #20]
 8003332:	e7c4      	b.n	80032be <_vfiprintf_r+0x156>
 8003334:	fb0c 2101 	mla	r1, ip, r1, r2
 8003338:	4604      	mov	r4, r0
 800333a:	2301      	movs	r3, #1
 800333c:	e7f0      	b.n	8003320 <_vfiprintf_r+0x1b8>
 800333e:	ab03      	add	r3, sp, #12
 8003340:	9300      	str	r3, [sp, #0]
 8003342:	462a      	mov	r2, r5
 8003344:	4b12      	ldr	r3, [pc, #72]	@ (8003390 <_vfiprintf_r+0x228>)
 8003346:	a904      	add	r1, sp, #16
 8003348:	4630      	mov	r0, r6
 800334a:	f3af 8000 	nop.w
 800334e:	4607      	mov	r7, r0
 8003350:	1c78      	adds	r0, r7, #1
 8003352:	d1d6      	bne.n	8003302 <_vfiprintf_r+0x19a>
 8003354:	6e6b      	ldr	r3, [r5, #100]	@ 0x64
 8003356:	07d9      	lsls	r1, r3, #31
 8003358:	d405      	bmi.n	8003366 <_vfiprintf_r+0x1fe>
 800335a:	89ab      	ldrh	r3, [r5, #12]
 800335c:	059a      	lsls	r2, r3, #22
 800335e:	d402      	bmi.n	8003366 <_vfiprintf_r+0x1fe>
 8003360:	6da8      	ldr	r0, [r5, #88]	@ 0x58
 8003362:	f7ff fce3 	bl	8002d2c <__retarget_lock_release_recursive>
 8003366:	89ab      	ldrh	r3, [r5, #12]
 8003368:	065b      	lsls	r3, r3, #25
 800336a:	f53f af1f 	bmi.w	80031ac <_vfiprintf_r+0x44>
 800336e:	9809      	ldr	r0, [sp, #36]	@ 0x24
 8003370:	e71e      	b.n	80031b0 <_vfiprintf_r+0x48>
 8003372:	ab03      	add	r3, sp, #12
 8003374:	9300      	str	r3, [sp, #0]
 8003376:	462a      	mov	r2, r5
 8003378:	4b05      	ldr	r3, [pc, #20]	@ (8003390 <_vfiprintf_r+0x228>)
 800337a:	a904      	add	r1, sp, #16
 800337c:	4630      	mov	r0, r6
 800337e:	f000 f879 	bl	8003474 <_printf_i>
 8003382:	e7e4      	b.n	800334e <_vfiprintf_r+0x1e6>
 8003384:	08004ab3 	.word	0x08004ab3
 8003388:	08004abd 	.word	0x08004abd
 800338c:	00000000 	.word	0x00000000
 8003390:	08003145 	.word	0x08003145
 8003394:	08004ab9 	.word	0x08004ab9

08003398 <_printf_common>:
 8003398:	e92d 47f0 	stmdb	sp!, {r4, r5, r6, r7, r8, r9, sl, lr}
 800339c:	4616      	mov	r6, r2
 800339e:	4698      	mov	r8, r3
 80033a0:	688a      	ldr	r2, [r1, #8]
 80033a2:	690b      	ldr	r3, [r1, #16]
 80033a4:	f8dd 9020 	ldr.w	r9, [sp, #32]
 80033a8:	4293      	cmp	r3, r2
 80033aa:	bfb8      	it	lt
 80033ac:	4613      	movlt	r3, r2
 80033ae:	6033      	str	r3, [r6, #0]
 80033b0:	f891 2043 	ldrb.w	r2, [r1, #67]	@ 0x43
 80033b4:	4607      	mov	r7, r0
 80033b6:	460c      	mov	r4, r1
 80033b8:	b10a      	cbz	r2, 80033be <_printf_common+0x26>
 80033ba:	3301      	adds	r3, #1
 80033bc:	6033      	str	r3, [r6, #0]
 80033be:	6823      	ldr	r3, [r4, #0]
 80033c0:	0699      	lsls	r1, r3, #26
 80033c2:	bf42      	ittt	mi
 80033c4:	6833      	ldrmi	r3, [r6, #0]
 80033c6:	3302      	addmi	r3, #2
 80033c8:	6033      	strmi	r3, [r6, #0]
 80033ca:	6825      	ldr	r5, [r4, #0]
 80033cc:	f015 0506 	ands.w	r5, r5, #6
 80033d0:	d106      	bne.n	80033e0 <_printf_common+0x48>
 80033d2:	f104 0a19 	add.w	sl, r4, #25
 80033d6:	68e3      	ldr	r3, [r4, #12]
 80033d8:	6832      	ldr	r2, [r6, #0]
 80033da:	1a9b      	subs	r3, r3, r2
 80033dc:	42ab      	cmp	r3, r5
 80033de:	dc26      	bgt.n	800342e <_printf_common+0x96>
 80033e0:	f894 3043 	ldrb.w	r3, [r4, #67]	@ 0x43
 80033e4:	6822      	ldr	r2, [r4, #0]
 80033e6:	3b00      	subs	r3, #0
 80033e8:	bf18      	it	ne
 80033ea:	2301      	movne	r3, #1
 80033ec:	0692      	lsls	r2, r2, #26
 80033ee:	d42b      	bmi.n	8003448 <_printf_common+0xb0>
 80033f0:	f104 0243 	add.w	r2, r4, #67	@ 0x43
 80033f4:	4641      	mov	r1, r8
 80033f6:	4638      	mov	r0, r7
 80033f8:	47c8      	blx	r9
 80033fa:	3001      	adds	r0, #1
 80033fc:	d01e      	beq.n	800343c <_printf_common+0xa4>
 80033fe:	6823      	ldr	r3, [r4, #0]
 8003400:	6922      	ldr	r2, [r4, #16]
 8003402:	f003 0306 	and.w	r3, r3, #6
 8003406:	2b04      	cmp	r3, #4
 8003408:	bf02      	ittt	eq
 800340a:	68e5      	ldreq	r5, [r4, #12]
 800340c:	6833      	ldreq	r3, [r6, #0]
 800340e:	1aed      	subeq	r5, r5, r3
 8003410:	68a3      	ldr	r3, [r4, #8]
 8003412:	bf0c      	ite	eq
 8003414:	ea25 75e5 	biceq.w	r5, r5, r5, asr #31
 8003418:	2500      	movne	r5, #0
 800341a:	4293      	cmp	r3, r2
 800341c:	bfc4      	itt	gt
 800341e:	1a9b      	subgt	r3, r3, r2
 8003420:	18ed      	addgt	r5, r5, r3
 8003422:	2600      	movs	r6, #0
 8003424:	341a      	adds	r4, #26
 8003426:	42b5      	cmp	r5, r6
 8003428:	d11a      	bne.n	8003460 <_printf_common+0xc8>
 800342a:	2000      	movs	r0, #0
 800342c:	e008      	b.n	8003440 <_printf_common+0xa8>
 800342e:	2301      	movs	r3, #1
 8003430:	4652      	mov	r2, sl
 8003432:	4641      	mov	r1, r8
 8003434:	4638      	mov	r0, r7
 8003436:	47c8      	blx	r9
 8003438:	3001      	adds	r0, #1
 800343a:	d103      	bne.n	8003444 <_printf_common+0xac>
 800343c:	f04f 30ff 	mov.w	r0, #4294967295
 8003440:	e8bd 87f0 	ldmia.w	sp!, {r4, r5, r6, r7, r8, r9, sl, pc}
 8003444:	3501      	adds	r5, #1
 8003446:	e7c6      	b.n	80033d6 <_printf_common+0x3e>
 8003448:	18e1      	adds	r1, r4, r3
 800344a:	1c5a      	adds	r2, r3, #1
 800344c:	2030      	movs	r0, #48	@ 0x30
 800344e:	f881 0043 	strb.w	r0, [r1, #67]	@ 0x43
 8003452:	4422      	add	r2, r4
 8003454:	f894 1045 	ldrb.w	r1, [r4, #69]	@ 0x45
 8003458:	f882 1043 	strb.w	r1, [r2, #67]	@ 0x43
 800345c:	3302      	adds	r3, #2
 800345e:	e7c7      	b.n	80033f0 <_printf_common+0x58>
 8003460:	2301      	movs	r3, #1
 8003462:	4622      	mov	r2, r4
 8003464:	4641      	mov	r1, r8
 8003466:	4638      	mov	r0, r7
 8003468:	47c8      	blx	r9
 800346a:	3001      	adds	r0, #1
 800346c:	d0e6      	beq.n	800343c <_printf_common+0xa4>
 800346e:	3601      	adds	r6, #1
 8003470:	e7d9      	b.n	8003426 <_printf_common+0x8e>
	...

08003474 <_printf_i>:
 8003474:	e92d 47ff 	stmdb	sp!, {r0, r1, r2, r3, r4, r5, r6, r7, r8, r9, sl, lr}
 8003478:	7e0f      	ldrb	r7, [r1, #24]
 800347a:	9e0c      	ldr	r6, [sp, #48]	@ 0x30
 800347c:	2f78      	cmp	r7, #120	@ 0x78
 800347e:	4691      	mov	r9, r2
 8003480:	4680      	mov	r8, r0
 8003482:	460c      	mov	r4, r1
 8003484:	469a      	mov	sl, r3
 8003486:	f101 0243 	add.w	r2, r1, #67	@ 0x43
 800348a:	d807      	bhi.n	800349c <_printf_i+0x28>
 800348c:	2f62      	cmp	r7, #98	@ 0x62
 800348e:	d80a      	bhi.n	80034a6 <_printf_i+0x32>
 8003490:	2f00      	cmp	r7, #0
 8003492:	f000 80d1 	beq.w	8003638 <_printf_i+0x1c4>
 8003496:	2f58      	cmp	r7, #88	@ 0x58
 8003498:	f000 80b8 	beq.w	800360c <_printf_i+0x198>
 800349c:	f104 0642 	add.w	r6, r4, #66	@ 0x42
 80034a0:	f884 7042 	strb.w	r7, [r4, #66]	@ 0x42
 80034a4:	e03a      	b.n	800351c <_printf_i+0xa8>
 80034a6:	f1a7 0363 	sub.w	r3, r7, #99	@ 0x63
 80034aa:	2b15      	cmp	r3, #21
 80034ac:	d8f6      	bhi.n	800349c <_printf_i+0x28>
 80034ae:	a101      	add	r1, pc, #4	@ (adr r1, 80034b4 <_printf_i+0x40>)
 80034b0:	f851 f023 	ldr.w	pc, [r1, r3, lsl #2]
 80034b4:	0800350d 	.word	0x0800350d
 80034b8:	08003521 	.word	0x08003521
 80034bc:	0800349d 	.word	0x0800349d
 80034c0:	0800349d 	.word	0x0800349d
 80034c4:	0800349d 	.word	0x0800349d
 80034c8:	0800349d 	.word	0x0800349d
 80034cc:	08003521 	.word	0x08003521
 80034d0:	0800349d 	.word	0x0800349d
 80034d4:	0800349d 	.word	0x0800349d
 80034d8:	0800349d 	.word	0x0800349d
 80034dc:	0800349d 	.word	0x0800349d
 80034e0:	0800361f 	.word	0x0800361f
 80034e4:	0800354b 	.word	0x0800354b
 80034e8:	080035d9 	.word	0x080035d9
 80034ec:	0800349d 	.word	0x0800349d
 80034f0:	0800349d 	.word	0x0800349d
 80034f4:	08003641 	.word	0x08003641
 80034f8:	0800349d 	.word	0x0800349d
 80034fc:	0800354b 	.word	0x0800354b
 8003500:	0800349d 	.word	0x0800349d
 8003504:	0800349d 	.word	0x0800349d
 8003508:	080035e1 	.word	0x080035e1
 800350c:	6833      	ldr	r3, [r6, #0]
 800350e:	1d1a      	adds	r2, r3, #4
 8003510:	681b      	ldr	r3, [r3, #0]
 8003512:	6032      	str	r2, [r6, #0]
 8003514:	f104 0642 	add.w	r6, r4, #66	@ 0x42
 8003518:	f884 3042 	strb.w	r3, [r4, #66]	@ 0x42
 800351c:	2301      	movs	r3, #1
 800351e:	e09c      	b.n	800365a <_printf_i+0x1e6>
 8003520:	6833      	ldr	r3, [r6, #0]
 8003522:	6820      	ldr	r0, [r4, #0]
 8003524:	1d19      	adds	r1, r3, #4
 8003526:	6031      	str	r1, [r6, #0]
 8003528:	0606      	lsls	r6, r0, #24
 800352a:	d501      	bpl.n	8003530 <_printf_i+0xbc>
 800352c:	681d      	ldr	r5, [r3, #0]
 800352e:	e003      	b.n	8003538 <_printf_i+0xc4>
 8003530:	0645      	lsls	r5, r0, #25
 8003532:	d5fb      	bpl.n	800352c <_printf_i+0xb8>
 8003534:	f9b3 5000 	ldrsh.w	r5, [r3]
 8003538:	2d00      	cmp	r5, #0
 800353a:	da03      	bge.n	8003544 <_printf_i+0xd0>
 800353c:	232d      	movs	r3, #45	@ 0x2d
 800353e:	426d      	negs	r5, r5
 8003540:	f884 3043 	strb.w	r3, [r4, #67]	@ 0x43
 8003544:	4858      	ldr	r0, [pc, #352]	@ (80036a8 <_printf_i+0x234>)
 8003546:	230a      	movs	r3, #10
 8003548:	e011      	b.n	800356e <_printf_i+0xfa>
 800354a:	6821      	ldr	r1, [r4, #0]
 800354c:	6833      	ldr	r3, [r6, #0]
 800354e:	0608      	lsls	r0, r1, #24
 8003550:	f853 5b04 	ldr.w	r5, [r3], #4
 8003554:	d402      	bmi.n	800355c <_printf_i+0xe8>
 8003556:	0649      	lsls	r1, r1, #25
 8003558:	bf48      	it	mi
 800355a:	b2ad      	uxthmi	r5, r5
 800355c:	2f6f      	cmp	r7, #111	@ 0x6f
 800355e:	4852      	ldr	r0, [pc, #328]	@ (80036a8 <_printf_i+0x234>)
 8003560:	6033      	str	r3, [r6, #0]
 8003562:	bf14      	ite	ne
 8003564:	230a      	movne	r3, #10
 8003566:	2308      	moveq	r3, #8
 8003568:	2100      	movs	r1, #0
 800356a:	f884 1043 	strb.w	r1, [r4, #67]	@ 0x43
 800356e:	6866      	ldr	r6, [r4, #4]
 8003570:	60a6      	str	r6, [r4, #8]
 8003572:	2e00      	cmp	r6, #0
 8003574:	db05      	blt.n	8003582 <_printf_i+0x10e>
 8003576:	6821      	ldr	r1, [r4, #0]
 8003578:	432e      	orrs	r6, r5
 800357a:	f021 0104 	bic.w	r1, r1, #4
 800357e:	6021      	str	r1, [r4, #0]
 8003580:	d04b      	beq.n	800361a <_printf_i+0x1a6>
 8003582:	4616      	mov	r6, r2
 8003584:	fbb5 f1f3 	udiv	r1, r5, r3
 8003588:	fb03 5711 	mls	r7, r3, r1, r5
 800358c:	5dc7      	ldrb	r7, [r0, r7]
 800358e:	f806 7d01 	strb.w	r7, [r6, #-1]!
 8003592:	462f      	mov	r7, r5
 8003594:	42bb      	cmp	r3, r7
 8003596:	460d      	mov	r5, r1
 8003598:	d9f4      	bls.n	8003584 <_printf_i+0x110>
 800359a:	2b08      	cmp	r3, #8
 800359c:	d10b      	bne.n	80035b6 <_printf_i+0x142>
 800359e:	6823      	ldr	r3, [r4, #0]
 80035a0:	07df      	lsls	r7, r3, #31
 80035a2:	d508      	bpl.n	80035b6 <_printf_i+0x142>
 80035a4:	6923      	ldr	r3, [r4, #16]
 80035a6:	6861      	ldr	r1, [r4, #4]
 80035a8:	4299      	cmp	r1, r3
 80035aa:	bfde      	ittt	le
 80035ac:	2330      	movle	r3, #48	@ 0x30
 80035ae:	f806 3c01 	strble.w	r3, [r6, #-1]
 80035b2:	f106 36ff 	addle.w	r6, r6, #4294967295
 80035b6:	1b92      	subs	r2, r2, r6
 80035b8:	6122      	str	r2, [r4, #16]
 80035ba:	f8cd a000 	str.w	sl, [sp]
 80035be:	464b      	mov	r3, r9
 80035c0:	aa03      	add	r2, sp, #12
 80035c2:	4621      	mov	r1, r4
 80035c4:	4640      	mov	r0, r8
 80035c6:	f7ff fee7 	bl	8003398 <_printf_common>
 80035ca:	3001      	adds	r0, #1
 80035cc:	d14a      	bne.n	8003664 <_printf_i+0x1f0>
 80035ce:	f04f 30ff 	mov.w	r0, #4294967295
 80035d2:	b004      	add	sp, #16
 80035d4:	e8bd 87f0 	ldmia.w	sp!, {r4, r5, r6, r7, r8, r9, sl, pc}
 80035d8:	6823      	ldr	r3, [r4, #0]
 80035da:	f043 0320 	orr.w	r3, r3, #32
 80035de:	6023      	str	r3, [r4, #0]
 80035e0:	4832      	ldr	r0, [pc, #200]	@ (80036ac <_printf_i+0x238>)
 80035e2:	2778      	movs	r7, #120	@ 0x78
 80035e4:	f884 7045 	strb.w	r7, [r4, #69]	@ 0x45
 80035e8:	6823      	ldr	r3, [r4, #0]
 80035ea:	6831      	ldr	r1, [r6, #0]
 80035ec:	061f      	lsls	r7, r3, #24
 80035ee:	f851 5b04 	ldr.w	r5, [r1], #4
 80035f2:	d402      	bmi.n	80035fa <_printf_i+0x186>
 80035f4:	065f      	lsls	r7, r3, #25
 80035f6:	bf48      	it	mi
 80035f8:	b2ad      	uxthmi	r5, r5
 80035fa:	6031      	str	r1, [r6, #0]
 80035fc:	07d9      	lsls	r1, r3, #31
 80035fe:	bf44      	itt	mi
 8003600:	f043 0320 	orrmi.w	r3, r3, #32
 8003604:	6023      	strmi	r3, [r4, #0]
 8003606:	b11d      	cbz	r5, 8003610 <_printf_i+0x19c>
 8003608:	2310      	movs	r3, #16
 800360a:	e7ad      	b.n	8003568 <_printf_i+0xf4>
 800360c:	4826      	ldr	r0, [pc, #152]	@ (80036a8 <_printf_i+0x234>)
 800360e:	e7e9      	b.n	80035e4 <_printf_i+0x170>
 8003610:	6823      	ldr	r3, [r4, #0]
 8003612:	f023 0320 	bic.w	r3, r3, #32
 8003616:	6023      	str	r3, [r4, #0]
 8003618:	e7f6      	b.n	8003608 <_printf_i+0x194>
 800361a:	4616      	mov	r6, r2
 800361c:	e7bd      	b.n	800359a <_printf_i+0x126>
 800361e:	6833      	ldr	r3, [r6, #0]
 8003620:	6825      	ldr	r5, [r4, #0]
 8003622:	6961      	ldr	r1, [r4, #20]
 8003624:	1d18      	adds	r0, r3, #4
 8003626:	6030      	str	r0, [r6, #0]
 8003628:	062e      	lsls	r6, r5, #24
 800362a:	681b      	ldr	r3, [r3, #0]
 800362c:	d501      	bpl.n	8003632 <_printf_i+0x1be>
 800362e:	6019      	str	r1, [r3, #0]
 8003630:	e002      	b.n	8003638 <_printf_i+0x1c4>
 8003632:	0668      	lsls	r0, r5, #25
 8003634:	d5fb      	bpl.n	800362e <_printf_i+0x1ba>
 8003636:	8019      	strh	r1, [r3, #0]
 8003638:	2300      	movs	r3, #0
 800363a:	6123      	str	r3, [r4, #16]
 800363c:	4616      	mov	r6, r2
 800363e:	e7bc      	b.n	80035ba <_printf_i+0x146>
 8003640:	6833      	ldr	r3, [r6, #0]
 8003642:	1d1a      	adds	r2, r3, #4
 8003644:	6032      	str	r2, [r6, #0]
 8003646:	681e      	ldr	r6, [r3, #0]
 8003648:	6862      	ldr	r2, [r4, #4]
 800364a:	2100      	movs	r1, #0
 800364c:	4630      	mov	r0, r6
 800364e:	f7fc fdbf 	bl	80001d0 <memchr>
 8003652:	b108      	cbz	r0, 8003658 <_printf_i+0x1e4>
 8003654:	1b80      	subs	r0, r0, r6
 8003656:	6060      	str	r0, [r4, #4]
 8003658:	6863      	ldr	r3, [r4, #4]
 800365a:	6123      	str	r3, [r4, #16]
 800365c:	2300      	movs	r3, #0
 800365e:	f884 3043 	strb.w	r3, [r4, #67]	@ 0x43
 8003662:	e7aa      	b.n	80035ba <_printf_i+0x146>
 8003664:	6923      	ldr	r3, [r4, #16]
 8003666:	4632      	mov	r2, r6
 8003668:	4649      	mov	r1, r9
 800366a:	4640      	mov	r0, r8
 800366c:	47d0      	blx	sl
 800366e:	3001      	adds	r0, #1
 8003670:	d0ad      	beq.n	80035ce <_printf_i+0x15a>
 8003672:	6823      	ldr	r3, [r4, #0]
 8003674:	079b      	lsls	r3, r3, #30
 8003676:	d413      	bmi.n	80036a0 <_printf_i+0x22c>
 8003678:	68e0      	ldr	r0, [r4, #12]
 800367a:	9b03      	ldr	r3, [sp, #12]
 800367c:	4298      	cmp	r0, r3
 800367e:	bfb8      	it	lt
 8003680:	4618      	movlt	r0, r3
 8003682:	e7a6      	b.n	80035d2 <_printf_i+0x15e>
 8003684:	2301      	movs	r3, #1
 8003686:	4632      	mov	r2, r6
 8003688:	4649      	mov	r1, r9
 800368a:	4640      	mov	r0, r8
 800368c:	47d0      	blx	sl
 800368e:	3001      	adds	r0, #1
 8003690:	d09d      	beq.n	80035ce <_printf_i+0x15a>
 8003692:	3501      	adds	r5, #1
 8003694:	68e3      	ldr	r3, [r4, #12]
 8003696:	9903      	ldr	r1, [sp, #12]
 8003698:	1a5b      	subs	r3, r3, r1
 800369a:	42ab      	cmp	r3, r5
 800369c:	dcf2      	bgt.n	8003684 <_printf_i+0x210>
 800369e:	e7eb      	b.n	8003678 <_printf_i+0x204>
 80036a0:	2500      	movs	r5, #0
 80036a2:	f104 0619 	add.w	r6, r4, #25
 80036a6:	e7f5      	b.n	8003694 <_printf_i+0x220>
 80036a8:	08004ac4 	.word	0x08004ac4
 80036ac:	08004ad5 	.word	0x08004ad5

080036b0 <__swbuf_r>:
 80036b0:	b5f8      	push	{r3, r4, r5, r6, r7, lr}
 80036b2:	460e      	mov	r6, r1
 80036b4:	4614      	mov	r4, r2
 80036b6:	4605      	mov	r5, r0
 80036b8:	b118      	cbz	r0, 80036c2 <__swbuf_r+0x12>
 80036ba:	6a03      	ldr	r3, [r0, #32]
 80036bc:	b90b      	cbnz	r3, 80036c2 <__swbuf_r+0x12>
 80036be:	f7ff fa41 	bl	8002b44 <__sinit>
 80036c2:	69a3      	ldr	r3, [r4, #24]
 80036c4:	60a3      	str	r3, [r4, #8]
 80036c6:	89a3      	ldrh	r3, [r4, #12]
 80036c8:	071a      	lsls	r2, r3, #28
 80036ca:	d501      	bpl.n	80036d0 <__swbuf_r+0x20>
 80036cc:	6923      	ldr	r3, [r4, #16]
 80036ce:	b943      	cbnz	r3, 80036e2 <__swbuf_r+0x32>
 80036d0:	4621      	mov	r1, r4
 80036d2:	4628      	mov	r0, r5
 80036d4:	f000 f82a 	bl	800372c <__swsetup_r>
 80036d8:	b118      	cbz	r0, 80036e2 <__swbuf_r+0x32>
 80036da:	f04f 37ff 	mov.w	r7, #4294967295
 80036de:	4638      	mov	r0, r7
 80036e0:	bdf8      	pop	{r3, r4, r5, r6, r7, pc}
 80036e2:	6823      	ldr	r3, [r4, #0]
 80036e4:	6922      	ldr	r2, [r4, #16]
 80036e6:	1a98      	subs	r0, r3, r2
 80036e8:	6963      	ldr	r3, [r4, #20]
 80036ea:	b2f6      	uxtb	r6, r6
 80036ec:	4283      	cmp	r3, r0
 80036ee:	4637      	mov	r7, r6
 80036f0:	dc05      	bgt.n	80036fe <__swbuf_r+0x4e>
 80036f2:	4621      	mov	r1, r4
 80036f4:	4628      	mov	r0, r5
 80036f6:	f7ff fcbd 	bl	8003074 <_fflush_r>
 80036fa:	2800      	cmp	r0, #0
 80036fc:	d1ed      	bne.n	80036da <__swbuf_r+0x2a>
 80036fe:	68a3      	ldr	r3, [r4, #8]
 8003700:	3b01      	subs	r3, #1
 8003702:	60a3      	str	r3, [r4, #8]
 8003704:	6823      	ldr	r3, [r4, #0]
 8003706:	1c5a      	adds	r2, r3, #1
 8003708:	6022      	str	r2, [r4, #0]
 800370a:	701e      	strb	r6, [r3, #0]
 800370c:	6962      	ldr	r2, [r4, #20]
 800370e:	1c43      	adds	r3, r0, #1
 8003710:	429a      	cmp	r2, r3
 8003712:	d004      	beq.n	800371e <__swbuf_r+0x6e>
 8003714:	89a3      	ldrh	r3, [r4, #12]
 8003716:	07db      	lsls	r3, r3, #31
 8003718:	d5e1      	bpl.n	80036de <__swbuf_r+0x2e>
 800371a:	2e0a      	cmp	r6, #10
 800371c:	d1df      	bne.n	80036de <__swbuf_r+0x2e>
 800371e:	4621      	mov	r1, r4
 8003720:	4628      	mov	r0, r5
 8003722:	f7ff fca7 	bl	8003074 <_fflush_r>
 8003726:	2800      	cmp	r0, #0
 8003728:	d0d9      	beq.n	80036de <__swbuf_r+0x2e>
 800372a:	e7d6      	b.n	80036da <__swbuf_r+0x2a>

0800372c <__swsetup_r>:
 800372c:	b538      	push	{r3, r4, r5, lr}
 800372e:	4b29      	ldr	r3, [pc, #164]	@ (80037d4 <__swsetup_r+0xa8>)
 8003730:	4605      	mov	r5, r0
 8003732:	6818      	ldr	r0, [r3, #0]
 8003734:	460c      	mov	r4, r1
 8003736:	b118      	cbz	r0, 8003740 <__swsetup_r+0x14>
 8003738:	6a03      	ldr	r3, [r0, #32]
 800373a:	b90b      	cbnz	r3, 8003740 <__swsetup_r+0x14>
 800373c:	f7ff fa02 	bl	8002b44 <__sinit>
 8003740:	f9b4 300c 	ldrsh.w	r3, [r4, #12]
 8003744:	0719      	lsls	r1, r3, #28
 8003746:	d422      	bmi.n	800378e <__swsetup_r+0x62>
 8003748:	06da      	lsls	r2, r3, #27
 800374a:	d407      	bmi.n	800375c <__swsetup_r+0x30>
 800374c:	2209      	movs	r2, #9
 800374e:	602a      	str	r2, [r5, #0]
 8003750:	f043 0340 	orr.w	r3, r3, #64	@ 0x40
 8003754:	81a3      	strh	r3, [r4, #12]
 8003756:	f04f 30ff 	mov.w	r0, #4294967295
 800375a:	e033      	b.n	80037c4 <__swsetup_r+0x98>
 800375c:	0758      	lsls	r0, r3, #29
 800375e:	d512      	bpl.n	8003786 <__swsetup_r+0x5a>
 8003760:	6b61      	ldr	r1, [r4, #52]	@ 0x34
 8003762:	b141      	cbz	r1, 8003776 <__swsetup_r+0x4a>
 8003764:	f104 0344 	add.w	r3, r4, #68	@ 0x44
 8003768:	4299      	cmp	r1, r3
 800376a:	d002      	beq.n	8003772 <__swsetup_r+0x46>
 800376c:	4628      	mov	r0, r5
 800376e:	f7ff fafd 	bl	8002d6c <_free_r>
 8003772:	2300      	movs	r3, #0
 8003774:	6363      	str	r3, [r4, #52]	@ 0x34
 8003776:	89a3      	ldrh	r3, [r4, #12]
 8003778:	f023 0324 	bic.w	r3, r3, #36	@ 0x24
 800377c:	81a3      	strh	r3, [r4, #12]
 800377e:	2300      	movs	r3, #0
 8003780:	6063      	str	r3, [r4, #4]
 8003782:	6923      	ldr	r3, [r4, #16]
 8003784:	6023      	str	r3, [r4, #0]
 8003786:	89a3      	ldrh	r3, [r4, #12]
 8003788:	f043 0308 	orr.w	r3, r3, #8
 800378c:	81a3      	strh	r3, [r4, #12]
 800378e:	6923      	ldr	r3, [r4, #16]
 8003790:	b94b      	cbnz	r3, 80037a6 <__swsetup_r+0x7a>
 8003792:	89a3      	ldrh	r3, [r4, #12]
 8003794:	f403 7320 	and.w	r3, r3, #640	@ 0x280
 8003798:	f5b3 7f00 	cmp.w	r3, #512	@ 0x200
 800379c:	d003      	beq.n	80037a6 <__swsetup_r+0x7a>
 800379e:	4621      	mov	r1, r4
 80037a0:	4628      	mov	r0, r5
 80037a2:	f000 f883 	bl	80038ac <__smakebuf_r>
 80037a6:	f9b4 300c 	ldrsh.w	r3, [r4, #12]
 80037aa:	f013 0201 	ands.w	r2, r3, #1
 80037ae:	d00a      	beq.n	80037c6 <__swsetup_r+0x9a>
 80037b0:	2200      	movs	r2, #0
 80037b2:	60a2      	str	r2, [r4, #8]
 80037b4:	6962      	ldr	r2, [r4, #20]
 80037b6:	4252      	negs	r2, r2
 80037b8:	61a2      	str	r2, [r4, #24]
 80037ba:	6922      	ldr	r2, [r4, #16]
 80037bc:	b942      	cbnz	r2, 80037d0 <__swsetup_r+0xa4>
 80037be:	f013 0080 	ands.w	r0, r3, #128	@ 0x80
 80037c2:	d1c5      	bne.n	8003750 <__swsetup_r+0x24>
 80037c4:	bd38      	pop	{r3, r4, r5, pc}
 80037c6:	0799      	lsls	r1, r3, #30
 80037c8:	bf58      	it	pl
 80037ca:	6962      	ldrpl	r2, [r4, #20]
 80037cc:	60a2      	str	r2, [r4, #8]
 80037ce:	e7f4      	b.n	80037ba <__swsetup_r+0x8e>
 80037d0:	2000      	movs	r0, #0
 80037d2:	e7f7      	b.n	80037c4 <__swsetup_r+0x98>
 80037d4:	2000003c 	.word	0x2000003c

080037d8 <_raise_r>:
 80037d8:	291f      	cmp	r1, #31
 80037da:	b538      	push	{r3, r4, r5, lr}
 80037dc:	4605      	mov	r5, r0
 80037de:	460c      	mov	r4, r1
 80037e0:	d904      	bls.n	80037ec <_raise_r+0x14>
 80037e2:	2316      	movs	r3, #22
 80037e4:	6003      	str	r3, [r0, #0]
 80037e6:	f04f 30ff 	mov.w	r0, #4294967295
 80037ea:	bd38      	pop	{r3, r4, r5, pc}
 80037ec:	6bc2      	ldr	r2, [r0, #60]	@ 0x3c
 80037ee:	b112      	cbz	r2, 80037f6 <_raise_r+0x1e>
 80037f0:	f852 3021 	ldr.w	r3, [r2, r1, lsl #2]
 80037f4:	b94b      	cbnz	r3, 800380a <_raise_r+0x32>
 80037f6:	4628      	mov	r0, r5
 80037f8:	f000 f830 	bl	800385c <_getpid_r>
 80037fc:	4622      	mov	r2, r4
 80037fe:	4601      	mov	r1, r0
 8003800:	4628      	mov	r0, r5
 8003802:	e8bd 4038 	ldmia.w	sp!, {r3, r4, r5, lr}
 8003806:	f000 b817 	b.w	8003838 <_kill_r>
 800380a:	2b01      	cmp	r3, #1
 800380c:	d00a      	beq.n	8003824 <_raise_r+0x4c>
 800380e:	1c59      	adds	r1, r3, #1
 8003810:	d103      	bne.n	800381a <_raise_r+0x42>
 8003812:	2316      	movs	r3, #22
 8003814:	6003      	str	r3, [r0, #0]
 8003816:	2001      	movs	r0, #1
 8003818:	e7e7      	b.n	80037ea <_raise_r+0x12>
 800381a:	2100      	movs	r1, #0
 800381c:	f842 1024 	str.w	r1, [r2, r4, lsl #2]
 8003820:	4620      	mov	r0, r4
 8003822:	4798      	blx	r3
 8003824:	2000      	movs	r0, #0
 8003826:	e7e0      	b.n	80037ea <_raise_r+0x12>

08003828 <raise>:
 8003828:	4b02      	ldr	r3, [pc, #8]	@ (8003834 <raise+0xc>)
 800382a:	4601      	mov	r1, r0
 800382c:	6818      	ldr	r0, [r3, #0]
 800382e:	f7ff bfd3 	b.w	80037d8 <_raise_r>
 8003832:	bf00      	nop
 8003834:	2000003c 	.word	0x2000003c

08003838 <_kill_r>:
 8003838:	b538      	push	{r3, r4, r5, lr}
 800383a:	4d07      	ldr	r5, [pc, #28]	@ (8003858 <_kill_r+0x20>)
 800383c:	2300      	movs	r3, #0
 800383e:	4604      	mov	r4, r0
 8003840:	4608      	mov	r0, r1
 8003842:	4611      	mov	r1, r2
 8003844:	602b      	str	r3, [r5, #0]
 8003846:	f7fd fe55 	bl	80014f4 <_kill>
 800384a:	1c43      	adds	r3, r0, #1
 800384c:	d102      	bne.n	8003854 <_kill_r+0x1c>
 800384e:	682b      	ldr	r3, [r5, #0]
 8003850:	b103      	cbz	r3, 8003854 <_kill_r+0x1c>
 8003852:	6023      	str	r3, [r4, #0]
 8003854:	bd38      	pop	{r3, r4, r5, pc}
 8003856:	bf00      	nop
 8003858:	2000060c 	.word	0x2000060c

0800385c <_getpid_r>:
 800385c:	f7fd be48 	b.w	80014f0 <_getpid>

08003860 <__swhatbuf_r>:
 8003860:	b570      	push	{r4, r5, r6, lr}
 8003862:	460c      	mov	r4, r1
 8003864:	f9b1 100e 	ldrsh.w	r1, [r1, #14]
 8003868:	2900      	cmp	r1, #0
 800386a:	b096      	sub	sp, #88	@ 0x58
 800386c:	4615      	mov	r5, r2
 800386e:	461e      	mov	r6, r3
 8003870:	da0d      	bge.n	800388e <__swhatbuf_r+0x2e>
 8003872:	89a3      	ldrh	r3, [r4, #12]
 8003874:	f013 0f80 	tst.w	r3, #128	@ 0x80
 8003878:	f04f 0100 	mov.w	r1, #0
 800387c:	bf14      	ite	ne
 800387e:	2340      	movne	r3, #64	@ 0x40
 8003880:	f44f 6380 	moveq.w	r3, #1024	@ 0x400
 8003884:	2000      	movs	r0, #0
 8003886:	6031      	str	r1, [r6, #0]
 8003888:	602b      	str	r3, [r5, #0]
 800388a:	b016      	add	sp, #88	@ 0x58
 800388c:	bd70      	pop	{r4, r5, r6, pc}
 800388e:	466a      	mov	r2, sp
 8003890:	f000 f848 	bl	8003924 <_fstat_r>
 8003894:	2800      	cmp	r0, #0
 8003896:	dbec      	blt.n	8003872 <__swhatbuf_r+0x12>
 8003898:	9901      	ldr	r1, [sp, #4]
 800389a:	f401 4170 	and.w	r1, r1, #61440	@ 0xf000
 800389e:	f5a1 5300 	sub.w	r3, r1, #8192	@ 0x2000
 80038a2:	4259      	negs	r1, r3
 80038a4:	4159      	adcs	r1, r3
 80038a6:	f44f 6380 	mov.w	r3, #1024	@ 0x400
 80038aa:	e7eb      	b.n	8003884 <__swhatbuf_r+0x24>

080038ac <__smakebuf_r>:
 80038ac:	898b      	ldrh	r3, [r1, #12]
 80038ae:	b5f7      	push	{r0, r1, r2, r4, r5, r6, r7, lr}
 80038b0:	079d      	lsls	r5, r3, #30
 80038b2:	4606      	mov	r6, r0
 80038b4:	460c      	mov	r4, r1
 80038b6:	d507      	bpl.n	80038c8 <__smakebuf_r+0x1c>
 80038b8:	f104 0347 	add.w	r3, r4, #71	@ 0x47
 80038bc:	6023      	str	r3, [r4, #0]
 80038be:	6123      	str	r3, [r4, #16]
 80038c0:	2301      	movs	r3, #1
 80038c2:	6163      	str	r3, [r4, #20]
 80038c4:	b003      	add	sp, #12
 80038c6:	bdf0      	pop	{r4, r5, r6, r7, pc}
 80038c8:	ab01      	add	r3, sp, #4
 80038ca:	466a      	mov	r2, sp
 80038cc:	f7ff ffc8 	bl	8003860 <__swhatbuf_r>
 80038d0:	9f00      	ldr	r7, [sp, #0]
 80038d2:	4605      	mov	r5, r0
 80038d4:	4639      	mov	r1, r7
 80038d6:	4630      	mov	r0, r6
 80038d8:	f7ff fabc 	bl	8002e54 <_malloc_r>
 80038dc:	b948      	cbnz	r0, 80038f2 <__smakebuf_r+0x46>
 80038de:	f9b4 300c 	ldrsh.w	r3, [r4, #12]
 80038e2:	059a      	lsls	r2, r3, #22
 80038e4:	d4ee      	bmi.n	80038c4 <__smakebuf_r+0x18>
 80038e6:	f023 0303 	bic.w	r3, r3, #3
 80038ea:	f043 0302 	orr.w	r3, r3, #2
 80038ee:	81a3      	strh	r3, [r4, #12]
 80038f0:	e7e2      	b.n	80038b8 <__smakebuf_r+0xc>
 80038f2:	89a3      	ldrh	r3, [r4, #12]
 80038f4:	6020      	str	r0, [r4, #0]
 80038f6:	f043 0380 	orr.w	r3, r3, #128	@ 0x80
 80038fa:	81a3      	strh	r3, [r4, #12]
 80038fc:	9b01      	ldr	r3, [sp, #4]
 80038fe:	e9c4 0704 	strd	r0, r7, [r4, #16]
 8003902:	b15b      	cbz	r3, 800391c <__smakebuf_r+0x70>
 8003904:	f9b4 100e 	ldrsh.w	r1, [r4, #14]
 8003908:	4630      	mov	r0, r6
 800390a:	f000 f81d 	bl	8003948 <_isatty_r>
 800390e:	b128      	cbz	r0, 800391c <__smakebuf_r+0x70>
 8003910:	89a3      	ldrh	r3, [r4, #12]
 8003912:	f023 0303 	bic.w	r3, r3, #3
 8003916:	f043 0301 	orr.w	r3, r3, #1
 800391a:	81a3      	strh	r3, [r4, #12]
 800391c:	89a3      	ldrh	r3, [r4, #12]
 800391e:	431d      	orrs	r5, r3
 8003920:	81a5      	strh	r5, [r4, #12]
 8003922:	e7cf      	b.n	80038c4 <__smakebuf_r+0x18>

08003924 <_fstat_r>:
 8003924:	b538      	push	{r3, r4, r5, lr}
 8003926:	4d07      	ldr	r5, [pc, #28]	@ (8003944 <_fstat_r+0x20>)
 8003928:	2300      	movs	r3, #0
 800392a:	4604      	mov	r4, r0
 800392c:	4608      	mov	r0, r1
 800392e:	4611      	mov	r1, r2
 8003930:	602b      	str	r3, [r5, #0]
 8003932:	f7fd fe0c 	bl	800154e <_fstat>
 8003936:	1c43      	adds	r3, r0, #1
 8003938:	d102      	bne.n	8003940 <_fstat_r+0x1c>
 800393a:	682b      	ldr	r3, [r5, #0]
 800393c:	b103      	cbz	r3, 8003940 <_fstat_r+0x1c>
 800393e:	6023      	str	r3, [r4, #0]
 8003940:	bd38      	pop	{r3, r4, r5, pc}
 8003942:	bf00      	nop
 8003944:	2000060c 	.word	0x2000060c

08003948 <_isatty_r>:
 8003948:	b538      	push	{r3, r4, r5, lr}
 800394a:	4d06      	ldr	r5, [pc, #24]	@ (8003964 <_isatty_r+0x1c>)
 800394c:	2300      	movs	r3, #0
 800394e:	4604      	mov	r4, r0
 8003950:	4608      	mov	r0, r1
 8003952:	602b      	str	r3, [r5, #0]
 8003954:	f7fd fe00 	bl	8001558 <_isatty>
 8003958:	1c43      	adds	r3, r0, #1
 800395a:	d102      	bne.n	8003962 <_isatty_r+0x1a>
 800395c:	682b      	ldr	r3, [r5, #0]
 800395e:	b103      	cbz	r3, 8003962 <_isatty_r+0x1a>
 8003960:	6023      	str	r3, [r4, #0]
 8003962:	bd38      	pop	{r3, r4, r5, pc}
 8003964:	2000060c 	.word	0x2000060c

08003968 <sin>:
 8003968:	b51f      	push	{r0, r1, r2, r3, r4, lr}
 800396a:	ec53 2b10 	vmov	r2, r3, d0
 800396e:	4826      	ldr	r0, [pc, #152]	@ (8003a08 <sin+0xa0>)
 8003970:	f023 4100 	bic.w	r1, r3, #2147483648	@ 0x80000000
 8003974:	4281      	cmp	r1, r0
 8003976:	d807      	bhi.n	8003988 <sin+0x20>
 8003978:	ed9f 1b21 	vldr	d1, [pc, #132]	@ 8003a00 <sin+0x98>
 800397c:	2000      	movs	r0, #0
 800397e:	b005      	add	sp, #20
 8003980:	f85d eb04 	ldr.w	lr, [sp], #4
 8003984:	f000 b90c 	b.w	8003ba0 <__kernel_sin>
 8003988:	4820      	ldr	r0, [pc, #128]	@ (8003a0c <sin+0xa4>)
 800398a:	4281      	cmp	r1, r0
 800398c:	d908      	bls.n	80039a0 <sin+0x38>
 800398e:	4610      	mov	r0, r2
 8003990:	4619      	mov	r1, r3
 8003992:	f7fc fc71 	bl	8000278 <__aeabi_dsub>
 8003996:	ec41 0b10 	vmov	d0, r0, r1
 800399a:	b005      	add	sp, #20
 800399c:	f85d fb04 	ldr.w	pc, [sp], #4
 80039a0:	4668      	mov	r0, sp
 80039a2:	f000 f9b9 	bl	8003d18 <__ieee754_rem_pio2>
 80039a6:	f000 0003 	and.w	r0, r0, #3
 80039aa:	2801      	cmp	r0, #1
 80039ac:	d00c      	beq.n	80039c8 <sin+0x60>
 80039ae:	2802      	cmp	r0, #2
 80039b0:	d011      	beq.n	80039d6 <sin+0x6e>
 80039b2:	b9e8      	cbnz	r0, 80039f0 <sin+0x88>
 80039b4:	ed9d 1b02 	vldr	d1, [sp, #8]
 80039b8:	ed9d 0b00 	vldr	d0, [sp]
 80039bc:	2001      	movs	r0, #1
 80039be:	f000 f8ef 	bl	8003ba0 <__kernel_sin>
 80039c2:	ec51 0b10 	vmov	r0, r1, d0
 80039c6:	e7e6      	b.n	8003996 <sin+0x2e>
 80039c8:	ed9d 1b02 	vldr	d1, [sp, #8]
 80039cc:	ed9d 0b00 	vldr	d0, [sp]
 80039d0:	f000 f81e 	bl	8003a10 <__kernel_cos>
 80039d4:	e7f5      	b.n	80039c2 <sin+0x5a>
 80039d6:	ed9d 1b02 	vldr	d1, [sp, #8]
 80039da:	ed9d 0b00 	vldr	d0, [sp]
 80039de:	2001      	movs	r0, #1
 80039e0:	f000 f8de 	bl	8003ba0 <__kernel_sin>
 80039e4:	ec53 2b10 	vmov	r2, r3, d0
 80039e8:	4610      	mov	r0, r2
 80039ea:	f103 4100 	add.w	r1, r3, #2147483648	@ 0x80000000
 80039ee:	e7d2      	b.n	8003996 <sin+0x2e>
 80039f0:	ed9d 1b02 	vldr	d1, [sp, #8]
 80039f4:	ed9d 0b00 	vldr	d0, [sp]
 80039f8:	f000 f80a 	bl	8003a10 <__kernel_cos>
 80039fc:	e7f2      	b.n	80039e4 <sin+0x7c>
 80039fe:	bf00      	nop
	...
 8003a08:	3fe921fb 	.word	0x3fe921fb
 8003a0c:	7fefffff 	.word	0x7fefffff

08003a10 <__kernel_cos>:
 8003a10:	e92d 4ff7 	stmdb	sp!, {r0, r1, r2, r4, r5, r6, r7, r8, r9, sl, fp, lr}
 8003a14:	ec57 6b10 	vmov	r6, r7, d0
 8003a18:	f027 4800 	bic.w	r8, r7, #2147483648	@ 0x80000000
 8003a1c:	f1b8 5f79 	cmp.w	r8, #1044381696	@ 0x3e400000
 8003a20:	ed8d 1b00 	vstr	d1, [sp]
 8003a24:	d206      	bcs.n	8003a34 <__kernel_cos+0x24>
 8003a26:	4630      	mov	r0, r6
 8003a28:	4639      	mov	r1, r7
 8003a2a:	f7fd f877 	bl	8000b1c <__aeabi_d2iz>
 8003a2e:	2800      	cmp	r0, #0
 8003a30:	f000 8088 	beq.w	8003b44 <__kernel_cos+0x134>
 8003a34:	4632      	mov	r2, r6
 8003a36:	463b      	mov	r3, r7
 8003a38:	4630      	mov	r0, r6
 8003a3a:	4639      	mov	r1, r7
 8003a3c:	f7fc fdd4 	bl	80005e8 <__aeabi_dmul>
 8003a40:	4b51      	ldr	r3, [pc, #324]	@ (8003b88 <__kernel_cos+0x178>)
 8003a42:	2200      	movs	r2, #0
 8003a44:	4604      	mov	r4, r0
 8003a46:	460d      	mov	r5, r1
 8003a48:	f7fc fdce 	bl	80005e8 <__aeabi_dmul>
 8003a4c:	a340      	add	r3, pc, #256	@ (adr r3, 8003b50 <__kernel_cos+0x140>)
 8003a4e:	e9d3 2300 	ldrd	r2, r3, [r3]
 8003a52:	4682      	mov	sl, r0
 8003a54:	468b      	mov	fp, r1
 8003a56:	4620      	mov	r0, r4
 8003a58:	4629      	mov	r1, r5
 8003a5a:	f7fc fdc5 	bl	80005e8 <__aeabi_dmul>
 8003a5e:	a33e      	add	r3, pc, #248	@ (adr r3, 8003b58 <__kernel_cos+0x148>)
 8003a60:	e9d3 2300 	ldrd	r2, r3, [r3]
 8003a64:	f7fc fc0a 	bl	800027c <__adddf3>
 8003a68:	4622      	mov	r2, r4
 8003a6a:	462b      	mov	r3, r5
 8003a6c:	f7fc fdbc 	bl	80005e8 <__aeabi_dmul>
 8003a70:	a33b      	add	r3, pc, #236	@ (adr r3, 8003b60 <__kernel_cos+0x150>)
 8003a72:	e9d3 2300 	ldrd	r2, r3, [r3]
 8003a76:	f7fc fbff 	bl	8000278 <__aeabi_dsub>
 8003a7a:	4622      	mov	r2, r4
 8003a7c:	462b      	mov	r3, r5
 8003a7e:	f7fc fdb3 	bl	80005e8 <__aeabi_dmul>
 8003a82:	a339      	add	r3, pc, #228	@ (adr r3, 8003b68 <__kernel_cos+0x158>)
 8003a84:	e9d3 2300 	ldrd	r2, r3, [r3]
 8003a88:	f7fc fbf8 	bl	800027c <__adddf3>
 8003a8c:	4622      	mov	r2, r4
 8003a8e:	462b      	mov	r3, r5
 8003a90:	f7fc fdaa 	bl	80005e8 <__aeabi_dmul>
 8003a94:	a336      	add	r3, pc, #216	@ (adr r3, 8003b70 <__kernel_cos+0x160>)
 8003a96:	e9d3 2300 	ldrd	r2, r3, [r3]
 8003a9a:	f7fc fbed 	bl	8000278 <__aeabi_dsub>
 8003a9e:	4622      	mov	r2, r4
 8003aa0:	462b      	mov	r3, r5
 8003aa2:	f7fc fda1 	bl	80005e8 <__aeabi_dmul>
 8003aa6:	a334      	add	r3, pc, #208	@ (adr r3, 8003b78 <__kernel_cos+0x168>)
 8003aa8:	e9d3 2300 	ldrd	r2, r3, [r3]
 8003aac:	f7fc fbe6 	bl	800027c <__adddf3>
 8003ab0:	4622      	mov	r2, r4
 8003ab2:	462b      	mov	r3, r5
 8003ab4:	f7fc fd98 	bl	80005e8 <__aeabi_dmul>
 8003ab8:	4622      	mov	r2, r4
 8003aba:	462b      	mov	r3, r5
 8003abc:	f7fc fd94 	bl	80005e8 <__aeabi_dmul>
 8003ac0:	e9dd 2300 	ldrd	r2, r3, [sp]
 8003ac4:	4604      	mov	r4, r0
 8003ac6:	460d      	mov	r5, r1
 8003ac8:	4630      	mov	r0, r6
 8003aca:	4639      	mov	r1, r7
 8003acc:	f7fc fd8c 	bl	80005e8 <__aeabi_dmul>
 8003ad0:	460b      	mov	r3, r1
 8003ad2:	4602      	mov	r2, r0
 8003ad4:	4629      	mov	r1, r5
 8003ad6:	4620      	mov	r0, r4
 8003ad8:	f7fc fbce 	bl	8000278 <__aeabi_dsub>
 8003adc:	4b2b      	ldr	r3, [pc, #172]	@ (8003b8c <__kernel_cos+0x17c>)
 8003ade:	4598      	cmp	r8, r3
 8003ae0:	4606      	mov	r6, r0
 8003ae2:	460f      	mov	r7, r1
 8003ae4:	d810      	bhi.n	8003b08 <__kernel_cos+0xf8>
 8003ae6:	4602      	mov	r2, r0
 8003ae8:	460b      	mov	r3, r1
 8003aea:	4650      	mov	r0, sl
 8003aec:	4659      	mov	r1, fp
 8003aee:	f7fc fbc3 	bl	8000278 <__aeabi_dsub>
 8003af2:	460b      	mov	r3, r1
 8003af4:	4926      	ldr	r1, [pc, #152]	@ (8003b90 <__kernel_cos+0x180>)
 8003af6:	4602      	mov	r2, r0
 8003af8:	2000      	movs	r0, #0
 8003afa:	f7fc fbbd 	bl	8000278 <__aeabi_dsub>
 8003afe:	ec41 0b10 	vmov	d0, r0, r1
 8003b02:	b003      	add	sp, #12
 8003b04:	e8bd 8ff0 	ldmia.w	sp!, {r4, r5, r6, r7, r8, r9, sl, fp, pc}
 8003b08:	4b22      	ldr	r3, [pc, #136]	@ (8003b94 <__kernel_cos+0x184>)
 8003b0a:	4921      	ldr	r1, [pc, #132]	@ (8003b90 <__kernel_cos+0x180>)
 8003b0c:	4598      	cmp	r8, r3
 8003b0e:	bf8c      	ite	hi
 8003b10:	4d21      	ldrhi	r5, [pc, #132]	@ (8003b98 <__kernel_cos+0x188>)
 8003b12:	f5a8 1500 	subls.w	r5, r8, #2097152	@ 0x200000
 8003b16:	2400      	movs	r4, #0
 8003b18:	4622      	mov	r2, r4
 8003b1a:	462b      	mov	r3, r5
 8003b1c:	2000      	movs	r0, #0
 8003b1e:	f7fc fbab 	bl	8000278 <__aeabi_dsub>
 8003b22:	4622      	mov	r2, r4
 8003b24:	4680      	mov	r8, r0
 8003b26:	4689      	mov	r9, r1
 8003b28:	462b      	mov	r3, r5
 8003b2a:	4650      	mov	r0, sl
 8003b2c:	4659      	mov	r1, fp
 8003b2e:	f7fc fba3 	bl	8000278 <__aeabi_dsub>
 8003b32:	4632      	mov	r2, r6
 8003b34:	463b      	mov	r3, r7
 8003b36:	f7fc fb9f 	bl	8000278 <__aeabi_dsub>
 8003b3a:	4602      	mov	r2, r0
 8003b3c:	460b      	mov	r3, r1
 8003b3e:	4640      	mov	r0, r8
 8003b40:	4649      	mov	r1, r9
 8003b42:	e7da      	b.n	8003afa <__kernel_cos+0xea>
 8003b44:	ed9f 0b0e 	vldr	d0, [pc, #56]	@ 8003b80 <__kernel_cos+0x170>
 8003b48:	e7db      	b.n	8003b02 <__kernel_cos+0xf2>
 8003b4a:	bf00      	nop
 8003b4c:	f3af 8000 	nop.w
 8003b50:	be8838d4 	.word	0xbe8838d4
 8003b54:	bda8fae9 	.word	0xbda8fae9
 8003b58:	bdb4b1c4 	.word	0xbdb4b1c4
 8003b5c:	3e21ee9e 	.word	0x3e21ee9e
 8003b60:	809c52ad 	.word	0x809c52ad
 8003b64:	3e927e4f 	.word	0x3e927e4f
 8003b68:	19cb1590 	.word	0x19cb1590
 8003b6c:	3efa01a0 	.word	0x3efa01a0
 8003b70:	16c15177 	.word	0x16c15177
 8003b74:	3f56c16c 	.word	0x3f56c16c
 8003b78:	5555554c 	.word	0x5555554c
 8003b7c:	3fa55555 	.word	0x3fa55555
 8003b80:	00000000 	.word	0x00000000
 8003b84:	3ff00000 	.word	0x3ff00000
 8003b88:	3fe00000 	.word	0x3fe00000
 8003b8c:	3fd33332 	.word	0x3fd33332
 8003b90:	3ff00000 	.word	0x3ff00000
 8003b94:	3fe90000 	.word	0x3fe90000
 8003b98:	3fd20000 	.word	0x3fd20000
 8003b9c:	00000000 	.word	0x00000000

08003ba0 <__kernel_sin>:
 8003ba0:	e92d 4ff0 	stmdb	sp!, {r4, r5, r6, r7, r8, r9, sl, fp, lr}
 8003ba4:	ec55 4b10 	vmov	r4, r5, d0
 8003ba8:	f025 4300 	bic.w	r3, r5, #2147483648	@ 0x80000000
 8003bac:	b085      	sub	sp, #20
 8003bae:	f1b3 5f79 	cmp.w	r3, #1044381696	@ 0x3e400000
 8003bb2:	ed8d 1b02 	vstr	d1, [sp, #8]
 8003bb6:	4680      	mov	r8, r0
 8003bb8:	d205      	bcs.n	8003bc6 <__kernel_sin+0x26>
 8003bba:	4620      	mov	r0, r4
 8003bbc:	4629      	mov	r1, r5
 8003bbe:	f7fc ffad 	bl	8000b1c <__aeabi_d2iz>
 8003bc2:	2800      	cmp	r0, #0
 8003bc4:	d052      	beq.n	8003c6c <__kernel_sin+0xcc>
 8003bc6:	4622      	mov	r2, r4
 8003bc8:	462b      	mov	r3, r5
 8003bca:	4620      	mov	r0, r4
 8003bcc:	4629      	mov	r1, r5
 8003bce:	f7fc fd0b 	bl	80005e8 <__aeabi_dmul>
 8003bd2:	4682      	mov	sl, r0
 8003bd4:	468b      	mov	fp, r1
 8003bd6:	4602      	mov	r2, r0
 8003bd8:	460b      	mov	r3, r1
 8003bda:	4620      	mov	r0, r4
 8003bdc:	4629      	mov	r1, r5
 8003bde:	f7fc fd03 	bl	80005e8 <__aeabi_dmul>
 8003be2:	a342      	add	r3, pc, #264	@ (adr r3, 8003cec <__kernel_sin+0x14c>)
 8003be4:	e9d3 2300 	ldrd	r2, r3, [r3]
 8003be8:	e9cd 0100 	strd	r0, r1, [sp]
 8003bec:	4650      	mov	r0, sl
 8003bee:	4659      	mov	r1, fp
 8003bf0:	f7fc fcfa 	bl	80005e8 <__aeabi_dmul>
 8003bf4:	a33f      	add	r3, pc, #252	@ (adr r3, 8003cf4 <__kernel_sin+0x154>)
 8003bf6:	e9d3 2300 	ldrd	r2, r3, [r3]
 8003bfa:	f7fc fb3d 	bl	8000278 <__aeabi_dsub>
 8003bfe:	4652      	mov	r2, sl
 8003c00:	465b      	mov	r3, fp
 8003c02:	f7fc fcf1 	bl	80005e8 <__aeabi_dmul>
 8003c06:	a33d      	add	r3, pc, #244	@ (adr r3, 8003cfc <__kernel_sin+0x15c>)
 8003c08:	e9d3 2300 	ldrd	r2, r3, [r3]
 8003c0c:	f7fc fb36 	bl	800027c <__adddf3>
 8003c10:	4652      	mov	r2, sl
 8003c12:	465b      	mov	r3, fp
 8003c14:	f7fc fce8 	bl	80005e8 <__aeabi_dmul>
 8003c18:	a33a      	add	r3, pc, #232	@ (adr r3, 8003d04 <__kernel_sin+0x164>)
 8003c1a:	e9d3 2300 	ldrd	r2, r3, [r3]
 8003c1e:	f7fc fb2b 	bl	8000278 <__aeabi_dsub>
 8003c22:	4652      	mov	r2, sl
 8003c24:	465b      	mov	r3, fp
 8003c26:	f7fc fcdf 	bl	80005e8 <__aeabi_dmul>
 8003c2a:	a338      	add	r3, pc, #224	@ (adr r3, 8003d0c <__kernel_sin+0x16c>)
 8003c2c:	e9d3 2300 	ldrd	r2, r3, [r3]
 8003c30:	f7fc fb24 	bl	800027c <__adddf3>
 8003c34:	4606      	mov	r6, r0
 8003c36:	460f      	mov	r7, r1
 8003c38:	f1b8 0f00 	cmp.w	r8, #0
 8003c3c:	d11b      	bne.n	8003c76 <__kernel_sin+0xd6>
 8003c3e:	4602      	mov	r2, r0
 8003c40:	460b      	mov	r3, r1
 8003c42:	4650      	mov	r0, sl
 8003c44:	4659      	mov	r1, fp
 8003c46:	f7fc fccf 	bl	80005e8 <__aeabi_dmul>
 8003c4a:	a325      	add	r3, pc, #148	@ (adr r3, 8003ce0 <__kernel_sin+0x140>)
 8003c4c:	e9d3 2300 	ldrd	r2, r3, [r3]
 8003c50:	f7fc fb12 	bl	8000278 <__aeabi_dsub>
 8003c54:	e9dd 2300 	ldrd	r2, r3, [sp]
 8003c58:	f7fc fcc6 	bl	80005e8 <__aeabi_dmul>
 8003c5c:	4602      	mov	r2, r0
 8003c5e:	460b      	mov	r3, r1
 8003c60:	4620      	mov	r0, r4
 8003c62:	4629      	mov	r1, r5
 8003c64:	f7fc fb0a 	bl	800027c <__adddf3>
 8003c68:	4604      	mov	r4, r0
 8003c6a:	460d      	mov	r5, r1
 8003c6c:	ec45 4b10 	vmov	d0, r4, r5
 8003c70:	b005      	add	sp, #20
 8003c72:	e8bd 8ff0 	ldmia.w	sp!, {r4, r5, r6, r7, r8, r9, sl, fp, pc}
 8003c76:	e9dd 0102 	ldrd	r0, r1, [sp, #8]
 8003c7a:	4b1b      	ldr	r3, [pc, #108]	@ (8003ce8 <__kernel_sin+0x148>)
 8003c7c:	2200      	movs	r2, #0
 8003c7e:	f7fc fcb3 	bl	80005e8 <__aeabi_dmul>
 8003c82:	4632      	mov	r2, r6
 8003c84:	4680      	mov	r8, r0
 8003c86:	4689      	mov	r9, r1
 8003c88:	463b      	mov	r3, r7
 8003c8a:	e9dd 0100 	ldrd	r0, r1, [sp]
 8003c8e:	f7fc fcab 	bl	80005e8 <__aeabi_dmul>
 8003c92:	4602      	mov	r2, r0
 8003c94:	460b      	mov	r3, r1
 8003c96:	4640      	mov	r0, r8
 8003c98:	4649      	mov	r1, r9
 8003c9a:	f7fc faed 	bl	8000278 <__aeabi_dsub>
 8003c9e:	4652      	mov	r2, sl
 8003ca0:	465b      	mov	r3, fp
 8003ca2:	f7fc fca1 	bl	80005e8 <__aeabi_dmul>
 8003ca6:	e9dd 2302 	ldrd	r2, r3, [sp, #8]
 8003caa:	f7fc fae5 	bl	8000278 <__aeabi_dsub>
 8003cae:	a30c      	add	r3, pc, #48	@ (adr r3, 8003ce0 <__kernel_sin+0x140>)
 8003cb0:	e9d3 2300 	ldrd	r2, r3, [r3]
 8003cb4:	4606      	mov	r6, r0
 8003cb6:	460f      	mov	r7, r1
 8003cb8:	e9dd 0100 	ldrd	r0, r1, [sp]
 8003cbc:	f7fc fc94 	bl	80005e8 <__aeabi_dmul>
 8003cc0:	4602      	mov	r2, r0
 8003cc2:	460b      	mov	r3, r1
 8003cc4:	4630      	mov	r0, r6
 8003cc6:	4639      	mov	r1, r7
 8003cc8:	f7fc fad8 	bl	800027c <__adddf3>
 8003ccc:	4602      	mov	r2, r0
 8003cce:	460b      	mov	r3, r1
 8003cd0:	4620      	mov	r0, r4
 8003cd2:	4629      	mov	r1, r5
 8003cd4:	f7fc fad0 	bl	8000278 <__aeabi_dsub>
 8003cd8:	e7c6      	b.n	8003c68 <__kernel_sin+0xc8>
 8003cda:	bf00      	nop
 8003cdc:	f3af 8000 	nop.w
 8003ce0:	55555549 	.word	0x55555549
 8003ce4:	3fc55555 	.word	0x3fc55555
 8003ce8:	3fe00000 	.word	0x3fe00000
 8003cec:	5acfd57c 	.word	0x5acfd57c
 8003cf0:	3de5d93a 	.word	0x3de5d93a
 8003cf4:	8a2b9ceb 	.word	0x8a2b9ceb
 8003cf8:	3e5ae5e6 	.word	0x3e5ae5e6
 8003cfc:	57b1fe7d 	.word	0x57b1fe7d
 8003d00:	3ec71de3 	.word	0x3ec71de3
 8003d04:	19c161d5 	.word	0x19c161d5
 8003d08:	3f2a01a0 	.word	0x3f2a01a0
 8003d0c:	1110f8a6 	.word	0x1110f8a6
 8003d10:	3f811111 	.word	0x3f811111
 8003d14:	00000000 	.word	0x00000000

08003d18 <__ieee754_rem_pio2>:
 8003d18:	e92d 4ff0 	stmdb	sp!, {r4, r5, r6, r7, r8, r9, sl, fp, lr}
 8003d1c:	ec57 6b10 	vmov	r6, r7, d0
 8003d20:	4bc5      	ldr	r3, [pc, #788]	@ (8004038 <__ieee754_rem_pio2+0x320>)
 8003d22:	b08d      	sub	sp, #52	@ 0x34
 8003d24:	f027 4800 	bic.w	r8, r7, #2147483648	@ 0x80000000
 8003d28:	4598      	cmp	r8, r3
 8003d2a:	4604      	mov	r4, r0
 8003d2c:	9704      	str	r7, [sp, #16]
 8003d2e:	d807      	bhi.n	8003d40 <__ieee754_rem_pio2+0x28>
 8003d30:	2200      	movs	r2, #0
 8003d32:	2300      	movs	r3, #0
 8003d34:	ed80 0b00 	vstr	d0, [r0]
 8003d38:	e9c0 2302 	strd	r2, r3, [r0, #8]
 8003d3c:	2500      	movs	r5, #0
 8003d3e:	e028      	b.n	8003d92 <__ieee754_rem_pio2+0x7a>
 8003d40:	4bbe      	ldr	r3, [pc, #760]	@ (800403c <__ieee754_rem_pio2+0x324>)
 8003d42:	4598      	cmp	r8, r3
 8003d44:	d878      	bhi.n	8003e38 <__ieee754_rem_pio2+0x120>
 8003d46:	9b04      	ldr	r3, [sp, #16]
 8003d48:	4dbd      	ldr	r5, [pc, #756]	@ (8004040 <__ieee754_rem_pio2+0x328>)
 8003d4a:	2b00      	cmp	r3, #0
 8003d4c:	4630      	mov	r0, r6
 8003d4e:	a3ac      	add	r3, pc, #688	@ (adr r3, 8004000 <__ieee754_rem_pio2+0x2e8>)
 8003d50:	e9d3 2300 	ldrd	r2, r3, [r3]
 8003d54:	4639      	mov	r1, r7
 8003d56:	dd38      	ble.n	8003dca <__ieee754_rem_pio2+0xb2>
 8003d58:	f7fc fa8e 	bl	8000278 <__aeabi_dsub>
 8003d5c:	45a8      	cmp	r8, r5
 8003d5e:	4606      	mov	r6, r0
 8003d60:	460f      	mov	r7, r1
 8003d62:	d01a      	beq.n	8003d9a <__ieee754_rem_pio2+0x82>
 8003d64:	a3a8      	add	r3, pc, #672	@ (adr r3, 8004008 <__ieee754_rem_pio2+0x2f0>)
 8003d66:	e9d3 2300 	ldrd	r2, r3, [r3]
 8003d6a:	f7fc fa85 	bl	8000278 <__aeabi_dsub>
 8003d6e:	4602      	mov	r2, r0
 8003d70:	460b      	mov	r3, r1
 8003d72:	4680      	mov	r8, r0
 8003d74:	4689      	mov	r9, r1
 8003d76:	4630      	mov	r0, r6
 8003d78:	4639      	mov	r1, r7
 8003d7a:	f7fc fa7d 	bl	8000278 <__aeabi_dsub>
 8003d7e:	a3a2      	add	r3, pc, #648	@ (adr r3, 8004008 <__ieee754_rem_pio2+0x2f0>)
 8003d80:	e9d3 2300 	ldrd	r2, r3, [r3]
 8003d84:	f7fc fa78 	bl	8000278 <__aeabi_dsub>
 8003d88:	e9c4 8900 	strd	r8, r9, [r4]
 8003d8c:	e9c4 0102 	strd	r0, r1, [r4, #8]
 8003d90:	2501      	movs	r5, #1
 8003d92:	4628      	mov	r0, r5
 8003d94:	b00d      	add	sp, #52	@ 0x34
 8003d96:	e8bd 8ff0 	ldmia.w	sp!, {r4, r5, r6, r7, r8, r9, sl, fp, pc}
 8003d9a:	a39d      	add	r3, pc, #628	@ (adr r3, 8004010 <__ieee754_rem_pio2+0x2f8>)
 8003d9c:	e9d3 2300 	ldrd	r2, r3, [r3]
 8003da0:	f7fc fa6a 	bl	8000278 <__aeabi_dsub>
 8003da4:	a39c      	add	r3, pc, #624	@ (adr r3, 8004018 <__ieee754_rem_pio2+0x300>)
 8003da6:	e9d3 2300 	ldrd	r2, r3, [r3]
 8003daa:	4606      	mov	r6, r0
 8003dac:	460f      	mov	r7, r1
 8003dae:	f7fc fa63 	bl	8000278 <__aeabi_dsub>
 8003db2:	4602      	mov	r2, r0
 8003db4:	460b      	mov	r3, r1
 8003db6:	4680      	mov	r8, r0
 8003db8:	4689      	mov	r9, r1
 8003dba:	4630      	mov	r0, r6
 8003dbc:	4639      	mov	r1, r7
 8003dbe:	f7fc fa5b 	bl	8000278 <__aeabi_dsub>
 8003dc2:	a395      	add	r3, pc, #596	@ (adr r3, 8004018 <__ieee754_rem_pio2+0x300>)
 8003dc4:	e9d3 2300 	ldrd	r2, r3, [r3]
 8003dc8:	e7dc      	b.n	8003d84 <__ieee754_rem_pio2+0x6c>
 8003dca:	f7fc fa57 	bl	800027c <__adddf3>
 8003dce:	45a8      	cmp	r8, r5
 8003dd0:	4606      	mov	r6, r0
 8003dd2:	460f      	mov	r7, r1
 8003dd4:	d018      	beq.n	8003e08 <__ieee754_rem_pio2+0xf0>
 8003dd6:	a38c      	add	r3, pc, #560	@ (adr r3, 8004008 <__ieee754_rem_pio2+0x2f0>)
 8003dd8:	e9d3 2300 	ldrd	r2, r3, [r3]
 8003ddc:	f7fc fa4e 	bl	800027c <__adddf3>
 8003de0:	4602      	mov	r2, r0
 8003de2:	460b      	mov	r3, r1
 8003de4:	4680      	mov	r8, r0
 8003de6:	4689      	mov	r9, r1
 8003de8:	4630      	mov	r0, r6
 8003dea:	4639      	mov	r1, r7
 8003dec:	f7fc fa44 	bl	8000278 <__aeabi_dsub>
 8003df0:	a385      	add	r3, pc, #532	@ (adr r3, 8004008 <__ieee754_rem_pio2+0x2f0>)
 8003df2:	e9d3 2300 	ldrd	r2, r3, [r3]
 8003df6:	f7fc fa41 	bl	800027c <__adddf3>
 8003dfa:	f04f 35ff 	mov.w	r5, #4294967295
 8003dfe:	e9c4 8900 	strd	r8, r9, [r4]
 8003e02:	e9c4 0102 	strd	r0, r1, [r4, #8]
 8003e06:	e7c4      	b.n	8003d92 <__ieee754_rem_pio2+0x7a>
 8003e08:	a381      	add	r3, pc, #516	@ (adr r3, 8004010 <__ieee754_rem_pio2+0x2f8>)
 8003e0a:	e9d3 2300 	ldrd	r2, r3, [r3]
 8003e0e:	f7fc fa35 	bl	800027c <__adddf3>
 8003e12:	a381      	add	r3, pc, #516	@ (adr r3, 8004018 <__ieee754_rem_pio2+0x300>)
 8003e14:	e9d3 2300 	ldrd	r2, r3, [r3]
 8003e18:	4606      	mov	r6, r0
 8003e1a:	460f      	mov	r7, r1
 8003e1c:	f7fc fa2e 	bl	800027c <__adddf3>
 8003e20:	4602      	mov	r2, r0
 8003e22:	460b      	mov	r3, r1
 8003e24:	4680      	mov	r8, r0
 8003e26:	4689      	mov	r9, r1
 8003e28:	4630      	mov	r0, r6
 8003e2a:	4639      	mov	r1, r7
 8003e2c:	f7fc fa24 	bl	8000278 <__aeabi_dsub>
 8003e30:	a379      	add	r3, pc, #484	@ (adr r3, 8004018 <__ieee754_rem_pio2+0x300>)
 8003e32:	e9d3 2300 	ldrd	r2, r3, [r3]
 8003e36:	e7de      	b.n	8003df6 <__ieee754_rem_pio2+0xde>
 8003e38:	4b82      	ldr	r3, [pc, #520]	@ (8004044 <__ieee754_rem_pio2+0x32c>)
 8003e3a:	4598      	cmp	r8, r3
 8003e3c:	f200 80d1 	bhi.w	8003fe2 <__ieee754_rem_pio2+0x2ca>
 8003e40:	f000 f966 	bl	8004110 <fabs>
 8003e44:	ec57 6b10 	vmov	r6, r7, d0
 8003e48:	a375      	add	r3, pc, #468	@ (adr r3, 8004020 <__ieee754_rem_pio2+0x308>)
 8003e4a:	e9d3 2300 	ldrd	r2, r3, [r3]
 8003e4e:	4630      	mov	r0, r6
 8003e50:	4639      	mov	r1, r7
 8003e52:	f7fc fbc9 	bl	80005e8 <__aeabi_dmul>
 8003e56:	4b7c      	ldr	r3, [pc, #496]	@ (8004048 <__ieee754_rem_pio2+0x330>)
 8003e58:	2200      	movs	r2, #0
 8003e5a:	f7fc fa0f 	bl	800027c <__adddf3>
 8003e5e:	f7fc fe5d 	bl	8000b1c <__aeabi_d2iz>
 8003e62:	4605      	mov	r5, r0
 8003e64:	f7fc fb56 	bl	8000514 <__aeabi_i2d>
 8003e68:	4602      	mov	r2, r0
 8003e6a:	460b      	mov	r3, r1
 8003e6c:	e9cd 2302 	strd	r2, r3, [sp, #8]
 8003e70:	a363      	add	r3, pc, #396	@ (adr r3, 8004000 <__ieee754_rem_pio2+0x2e8>)
 8003e72:	e9d3 2300 	ldrd	r2, r3, [r3]
 8003e76:	f7fc fbb7 	bl	80005e8 <__aeabi_dmul>
 8003e7a:	4602      	mov	r2, r0
 8003e7c:	460b      	mov	r3, r1
 8003e7e:	4630      	mov	r0, r6
 8003e80:	4639      	mov	r1, r7
 8003e82:	f7fc f9f9 	bl	8000278 <__aeabi_dsub>
 8003e86:	a360      	add	r3, pc, #384	@ (adr r3, 8004008 <__ieee754_rem_pio2+0x2f0>)
 8003e88:	e9d3 2300 	ldrd	r2, r3, [r3]
 8003e8c:	4682      	mov	sl, r0
 8003e8e:	468b      	mov	fp, r1
 8003e90:	e9dd 0102 	ldrd	r0, r1, [sp, #8]
 8003e94:	f7fc fba8 	bl	80005e8 <__aeabi_dmul>
 8003e98:	2d1f      	cmp	r5, #31
 8003e9a:	4606      	mov	r6, r0
 8003e9c:	460f      	mov	r7, r1
 8003e9e:	dc0c      	bgt.n	8003eba <__ieee754_rem_pio2+0x1a2>
 8003ea0:	4b6a      	ldr	r3, [pc, #424]	@ (800404c <__ieee754_rem_pio2+0x334>)
 8003ea2:	1e6a      	subs	r2, r5, #1
 8003ea4:	f853 3022 	ldr.w	r3, [r3, r2, lsl #2]
 8003ea8:	4543      	cmp	r3, r8
 8003eaa:	d006      	beq.n	8003eba <__ieee754_rem_pio2+0x1a2>
 8003eac:	4632      	mov	r2, r6
 8003eae:	463b      	mov	r3, r7
 8003eb0:	4650      	mov	r0, sl
 8003eb2:	4659      	mov	r1, fp
 8003eb4:	f7fc f9e0 	bl	8000278 <__aeabi_dsub>
 8003eb8:	e00e      	b.n	8003ed8 <__ieee754_rem_pio2+0x1c0>
 8003eba:	463b      	mov	r3, r7
 8003ebc:	4632      	mov	r2, r6
 8003ebe:	4650      	mov	r0, sl
 8003ec0:	4659      	mov	r1, fp
 8003ec2:	f7fc f9d9 	bl	8000278 <__aeabi_dsub>
 8003ec6:	ea4f 5328 	mov.w	r3, r8, asr #20
 8003eca:	9305      	str	r3, [sp, #20]
 8003ecc:	f3c1 530a 	ubfx	r3, r1, #20, #11
 8003ed0:	ebc3 5318 	rsb	r3, r3, r8, lsr #20
 8003ed4:	2b10      	cmp	r3, #16
 8003ed6:	dc02      	bgt.n	8003ede <__ieee754_rem_pio2+0x1c6>
 8003ed8:	e9c4 0100 	strd	r0, r1, [r4]
 8003edc:	e039      	b.n	8003f52 <__ieee754_rem_pio2+0x23a>
 8003ede:	a34c      	add	r3, pc, #304	@ (adr r3, 8004010 <__ieee754_rem_pio2+0x2f8>)
 8003ee0:	e9d3 2300 	ldrd	r2, r3, [r3]
 8003ee4:	e9dd 0102 	ldrd	r0, r1, [sp, #8]
 8003ee8:	f7fc fb7e 	bl	80005e8 <__aeabi_dmul>
 8003eec:	4606      	mov	r6, r0
 8003eee:	460f      	mov	r7, r1
 8003ef0:	4602      	mov	r2, r0
 8003ef2:	460b      	mov	r3, r1
 8003ef4:	4650      	mov	r0, sl
 8003ef6:	4659      	mov	r1, fp
 8003ef8:	f7fc f9be 	bl	8000278 <__aeabi_dsub>
 8003efc:	4602      	mov	r2, r0
 8003efe:	460b      	mov	r3, r1
 8003f00:	4680      	mov	r8, r0
 8003f02:	4689      	mov	r9, r1
 8003f04:	4650      	mov	r0, sl
 8003f06:	4659      	mov	r1, fp
 8003f08:	f7fc f9b6 	bl	8000278 <__aeabi_dsub>
 8003f0c:	4632      	mov	r2, r6
 8003f0e:	463b      	mov	r3, r7
 8003f10:	f7fc f9b2 	bl	8000278 <__aeabi_dsub>
 8003f14:	a340      	add	r3, pc, #256	@ (adr r3, 8004018 <__ieee754_rem_pio2+0x300>)
 8003f16:	e9d3 2300 	ldrd	r2, r3, [r3]
 8003f1a:	4606      	mov	r6, r0
 8003f1c:	460f      	mov	r7, r1
 8003f1e:	e9dd 0102 	ldrd	r0, r1, [sp, #8]
 8003f22:	f7fc fb61 	bl	80005e8 <__aeabi_dmul>
 8003f26:	4632      	mov	r2, r6
 8003f28:	463b      	mov	r3, r7
 8003f2a:	f7fc f9a5 	bl	8000278 <__aeabi_dsub>
 8003f2e:	4602      	mov	r2, r0
 8003f30:	460b      	mov	r3, r1
 8003f32:	4606      	mov	r6, r0
 8003f34:	460f      	mov	r7, r1
 8003f36:	4640      	mov	r0, r8
 8003f38:	4649      	mov	r1, r9
 8003f3a:	f7fc f99d 	bl	8000278 <__aeabi_dsub>
 8003f3e:	9a05      	ldr	r2, [sp, #20]
 8003f40:	f3c1 530a 	ubfx	r3, r1, #20, #11
 8003f44:	1ad3      	subs	r3, r2, r3
 8003f46:	2b31      	cmp	r3, #49	@ 0x31
 8003f48:	dc20      	bgt.n	8003f8c <__ieee754_rem_pio2+0x274>
 8003f4a:	e9c4 0100 	strd	r0, r1, [r4]
 8003f4e:	46c2      	mov	sl, r8
 8003f50:	46cb      	mov	fp, r9
 8003f52:	e9d4 8900 	ldrd	r8, r9, [r4]
 8003f56:	4650      	mov	r0, sl
 8003f58:	4642      	mov	r2, r8
 8003f5a:	464b      	mov	r3, r9
 8003f5c:	4659      	mov	r1, fp
 8003f5e:	f7fc f98b 	bl	8000278 <__aeabi_dsub>
 8003f62:	463b      	mov	r3, r7
 8003f64:	4632      	mov	r2, r6
 8003f66:	f7fc f987 	bl	8000278 <__aeabi_dsub>
 8003f6a:	9b04      	ldr	r3, [sp, #16]
 8003f6c:	2b00      	cmp	r3, #0
 8003f6e:	e9c4 0102 	strd	r0, r1, [r4, #8]
 8003f72:	f6bf af0e 	bge.w	8003d92 <__ieee754_rem_pio2+0x7a>
 8003f76:	f109 4300 	add.w	r3, r9, #2147483648	@ 0x80000000
 8003f7a:	6063      	str	r3, [r4, #4]
 8003f7c:	f101 4300 	add.w	r3, r1, #2147483648	@ 0x80000000
 8003f80:	f8c4 8000 	str.w	r8, [r4]
 8003f84:	60a0      	str	r0, [r4, #8]
 8003f86:	60e3      	str	r3, [r4, #12]
 8003f88:	426d      	negs	r5, r5
 8003f8a:	e702      	b.n	8003d92 <__ieee754_rem_pio2+0x7a>
 8003f8c:	a326      	add	r3, pc, #152	@ (adr r3, 8004028 <__ieee754_rem_pio2+0x310>)
 8003f8e:	e9d3 2300 	ldrd	r2, r3, [r3]
 8003f92:	e9dd 0102 	ldrd	r0, r1, [sp, #8]
 8003f96:	f7fc fb27 	bl	80005e8 <__aeabi_dmul>
 8003f9a:	4606      	mov	r6, r0
 8003f9c:	460f      	mov	r7, r1
 8003f9e:	4602      	mov	r2, r0
 8003fa0:	460b      	mov	r3, r1
 8003fa2:	4640      	mov	r0, r8
 8003fa4:	4649      	mov	r1, r9
 8003fa6:	f7fc f967 	bl	8000278 <__aeabi_dsub>
 8003faa:	4602      	mov	r2, r0
 8003fac:	460b      	mov	r3, r1
 8003fae:	4682      	mov	sl, r0
 8003fb0:	468b      	mov	fp, r1
 8003fb2:	4640      	mov	r0, r8
 8003fb4:	4649      	mov	r1, r9
 8003fb6:	f7fc f95f 	bl	8000278 <__aeabi_dsub>
 8003fba:	4632      	mov	r2, r6
 8003fbc:	463b      	mov	r3, r7
 8003fbe:	f7fc f95b 	bl	8000278 <__aeabi_dsub>
 8003fc2:	a31b      	add	r3, pc, #108	@ (adr r3, 8004030 <__ieee754_rem_pio2+0x318>)
 8003fc4:	e9d3 2300 	ldrd	r2, r3, [r3]
 8003fc8:	4606      	mov	r6, r0
 8003fca:	460f      	mov	r7, r1
 8003fcc:	e9dd 0102 	ldrd	r0, r1, [sp, #8]
 8003fd0:	f7fc fb0a 	bl	80005e8 <__aeabi_dmul>
 8003fd4:	4632      	mov	r2, r6
 8003fd6:	463b      	mov	r3, r7
 8003fd8:	f7fc f94e 	bl	8000278 <__aeabi_dsub>
 8003fdc:	4606      	mov	r6, r0
 8003fde:	460f      	mov	r7, r1
 8003fe0:	e764      	b.n	8003eac <__ieee754_rem_pio2+0x194>
 8003fe2:	4b1b      	ldr	r3, [pc, #108]	@ (8004050 <__ieee754_rem_pio2+0x338>)
 8003fe4:	4598      	cmp	r8, r3
 8003fe6:	d935      	bls.n	8004054 <__ieee754_rem_pio2+0x33c>
 8003fe8:	4632      	mov	r2, r6
 8003fea:	463b      	mov	r3, r7
 8003fec:	4630      	mov	r0, r6
 8003fee:	4639      	mov	r1, r7
 8003ff0:	f7fc f942 	bl	8000278 <__aeabi_dsub>
 8003ff4:	e9c4 0102 	strd	r0, r1, [r4, #8]
 8003ff8:	e9c4 0100 	strd	r0, r1, [r4]
 8003ffc:	e69e      	b.n	8003d3c <__ieee754_rem_pio2+0x24>
 8003ffe:	bf00      	nop
 8004000:	54400000 	.word	0x54400000
 8004004:	3ff921fb 	.word	0x3ff921fb
 8004008:	1a626331 	.word	0x1a626331
 800400c:	3dd0b461 	.word	0x3dd0b461
 8004010:	1a600000 	.word	0x1a600000
 8004014:	3dd0b461 	.word	0x3dd0b461
 8004018:	2e037073 	.word	0x2e037073
 800401c:	3ba3198a 	.word	0x3ba3198a
 8004020:	6dc9c883 	.word	0x6dc9c883
 8004024:	3fe45f30 	.word	0x3fe45f30
 8004028:	2e000000 	.word	0x2e000000
 800402c:	3ba3198a 	.word	0x3ba3198a
 8004030:	252049c1 	.word	0x252049c1
 8004034:	397b839a 	.word	0x397b839a
 8004038:	3fe921fb 	.word	0x3fe921fb
 800403c:	4002d97b 	.word	0x4002d97b
 8004040:	3ff921fb 	.word	0x3ff921fb
 8004044:	413921fb 	.word	0x413921fb
 8004048:	3fe00000 	.word	0x3fe00000
 800404c:	08004ae8 	.word	0x08004ae8
 8004050:	7fefffff 	.word	0x7fefffff
 8004054:	ea4f 5528 	mov.w	r5, r8, asr #20
 8004058:	f2a5 4516 	subw	r5, r5, #1046	@ 0x416
 800405c:	eba8 5105 	sub.w	r1, r8, r5, lsl #20
 8004060:	4630      	mov	r0, r6
 8004062:	460f      	mov	r7, r1
 8004064:	f7fc fd5a 	bl	8000b1c <__aeabi_d2iz>
 8004068:	f7fc fa54 	bl	8000514 <__aeabi_i2d>
 800406c:	4602      	mov	r2, r0
 800406e:	460b      	mov	r3, r1
 8004070:	4630      	mov	r0, r6
 8004072:	4639      	mov	r1, r7
 8004074:	e9cd 2306 	strd	r2, r3, [sp, #24]
 8004078:	f7fc f8fe 	bl	8000278 <__aeabi_dsub>
 800407c:	4b22      	ldr	r3, [pc, #136]	@ (8004108 <__ieee754_rem_pio2+0x3f0>)
 800407e:	2200      	movs	r2, #0
 8004080:	f7fc fab2 	bl	80005e8 <__aeabi_dmul>
 8004084:	460f      	mov	r7, r1
 8004086:	4606      	mov	r6, r0
 8004088:	f7fc fd48 	bl	8000b1c <__aeabi_d2iz>
 800408c:	f7fc fa42 	bl	8000514 <__aeabi_i2d>
 8004090:	4602      	mov	r2, r0
 8004092:	460b      	mov	r3, r1
 8004094:	4630      	mov	r0, r6
 8004096:	4639      	mov	r1, r7
 8004098:	e9cd 2308 	strd	r2, r3, [sp, #32]
 800409c:	f7fc f8ec 	bl	8000278 <__aeabi_dsub>
 80040a0:	4b19      	ldr	r3, [pc, #100]	@ (8004108 <__ieee754_rem_pio2+0x3f0>)
 80040a2:	2200      	movs	r2, #0
 80040a4:	f7fc faa0 	bl	80005e8 <__aeabi_dmul>
 80040a8:	e9cd 010a 	strd	r0, r1, [sp, #40]	@ 0x28
 80040ac:	f10d 0930 	add.w	r9, sp, #48	@ 0x30
 80040b0:	f04f 0803 	mov.w	r8, #3
 80040b4:	2600      	movs	r6, #0
 80040b6:	2700      	movs	r7, #0
 80040b8:	e979 0102 	ldrd	r0, r1, [r9, #-8]!
 80040bc:	4632      	mov	r2, r6
 80040be:	463b      	mov	r3, r7
 80040c0:	46c2      	mov	sl, r8
 80040c2:	f108 38ff 	add.w	r8, r8, #4294967295
 80040c6:	f7fc fcf7 	bl	8000ab8 <__aeabi_dcmpeq>
 80040ca:	2800      	cmp	r0, #0
 80040cc:	d1f4      	bne.n	80040b8 <__ieee754_rem_pio2+0x3a0>
 80040ce:	4b0f      	ldr	r3, [pc, #60]	@ (800410c <__ieee754_rem_pio2+0x3f4>)
 80040d0:	9301      	str	r3, [sp, #4]
 80040d2:	2302      	movs	r3, #2
 80040d4:	9300      	str	r3, [sp, #0]
 80040d6:	462a      	mov	r2, r5
 80040d8:	4653      	mov	r3, sl
 80040da:	4621      	mov	r1, r4
 80040dc:	a806      	add	r0, sp, #24
 80040de:	f000 f81f 	bl	8004120 <__kernel_rem_pio2>
 80040e2:	9b04      	ldr	r3, [sp, #16]
 80040e4:	2b00      	cmp	r3, #0
 80040e6:	4605      	mov	r5, r0
 80040e8:	f6bf ae53 	bge.w	8003d92 <__ieee754_rem_pio2+0x7a>
 80040ec:	e9d4 2100 	ldrd	r2, r1, [r4]
 80040f0:	f101 4300 	add.w	r3, r1, #2147483648	@ 0x80000000
 80040f4:	e9c4 2300 	strd	r2, r3, [r4]
 80040f8:	e9d4 2102 	ldrd	r2, r1, [r4, #8]
 80040fc:	f101 4300 	add.w	r3, r1, #2147483648	@ 0x80000000
 8004100:	e9c4 2302 	strd	r2, r3, [r4, #8]
 8004104:	e740      	b.n	8003f88 <__ieee754_rem_pio2+0x270>
 8004106:	bf00      	nop
 8004108:	41700000 	.word	0x41700000
 800410c:	08004b68 	.word	0x08004b68

08004110 <fabs>:
 8004110:	ec51 0b10 	vmov	r0, r1, d0
 8004114:	4602      	mov	r2, r0
 8004116:	f021 4300 	bic.w	r3, r1, #2147483648	@ 0x80000000
 800411a:	ec43 2b10 	vmov	d0, r2, r3
 800411e:	4770      	bx	lr

08004120 <__kernel_rem_pio2>:
 8004120:	e92d 4ff0 	stmdb	sp!, {r4, r5, r6, r7, r8, r9, sl, fp, lr}
 8004124:	ed2d 8b02 	vpush	{d8}
 8004128:	f5ad 7d19 	sub.w	sp, sp, #612	@ 0x264
 800412c:	f112 0f14 	cmn.w	r2, #20
 8004130:	9306      	str	r3, [sp, #24]
 8004132:	9104      	str	r1, [sp, #16]
 8004134:	4bc2      	ldr	r3, [pc, #776]	@ (8004440 <__kernel_rem_pio2+0x320>)
 8004136:	99a4      	ldr	r1, [sp, #656]	@ 0x290
 8004138:	9008      	str	r0, [sp, #32]
 800413a:	f853 3021 	ldr.w	r3, [r3, r1, lsl #2]
 800413e:	9300      	str	r3, [sp, #0]
 8004140:	9b06      	ldr	r3, [sp, #24]
 8004142:	f103 33ff 	add.w	r3, r3, #4294967295
 8004146:	bfa8      	it	ge
 8004148:	1ed4      	subge	r4, r2, #3
 800414a:	9305      	str	r3, [sp, #20]
 800414c:	bfb2      	itee	lt
 800414e:	2400      	movlt	r4, #0
 8004150:	2318      	movge	r3, #24
 8004152:	fb94 f4f3 	sdivge	r4, r4, r3
 8004156:	f06f 0317 	mvn.w	r3, #23
 800415a:	fb04 3303 	mla	r3, r4, r3, r3
 800415e:	eb03 0b02 	add.w	fp, r3, r2
 8004162:	9b00      	ldr	r3, [sp, #0]
 8004164:	9a05      	ldr	r2, [sp, #20]
 8004166:	ed9f 8bb2 	vldr	d8, [pc, #712]	@ 8004430 <__kernel_rem_pio2+0x310>
 800416a:	eb03 0802 	add.w	r8, r3, r2
 800416e:	9ba5      	ldr	r3, [sp, #660]	@ 0x294
 8004170:	1aa7      	subs	r7, r4, r2
 8004172:	ae20      	add	r6, sp, #128	@ 0x80
 8004174:	eb03 0987 	add.w	r9, r3, r7, lsl #2
 8004178:	2500      	movs	r5, #0
 800417a:	4545      	cmp	r5, r8
 800417c:	dd12      	ble.n	80041a4 <__kernel_rem_pio2+0x84>
 800417e:	9b06      	ldr	r3, [sp, #24]
 8004180:	aa20      	add	r2, sp, #128	@ 0x80
 8004182:	eb02 05c3 	add.w	r5, r2, r3, lsl #3
 8004186:	f50d 7ae0 	add.w	sl, sp, #448	@ 0x1c0
 800418a:	2700      	movs	r7, #0
 800418c:	9b00      	ldr	r3, [sp, #0]
 800418e:	429f      	cmp	r7, r3
 8004190:	dc2e      	bgt.n	80041f0 <__kernel_rem_pio2+0xd0>
 8004192:	ed9f 7ba7 	vldr	d7, [pc, #668]	@ 8004430 <__kernel_rem_pio2+0x310>
 8004196:	f8dd 9020 	ldr.w	r9, [sp, #32]
 800419a:	ed8d 7b02 	vstr	d7, [sp, #8]
 800419e:	46a8      	mov	r8, r5
 80041a0:	2600      	movs	r6, #0
 80041a2:	e01b      	b.n	80041dc <__kernel_rem_pio2+0xbc>
 80041a4:	42ef      	cmn	r7, r5
 80041a6:	d407      	bmi.n	80041b8 <__kernel_rem_pio2+0x98>
 80041a8:	f859 0025 	ldr.w	r0, [r9, r5, lsl #2]
 80041ac:	f7fc f9b2 	bl	8000514 <__aeabi_i2d>
 80041b0:	e8e6 0102 	strd	r0, r1, [r6], #8
 80041b4:	3501      	adds	r5, #1
 80041b6:	e7e0      	b.n	800417a <__kernel_rem_pio2+0x5a>
 80041b8:	ec51 0b18 	vmov	r0, r1, d8
 80041bc:	e7f8      	b.n	80041b0 <__kernel_rem_pio2+0x90>
 80041be:	e978 2302 	ldrd	r2, r3, [r8, #-8]!
 80041c2:	e8f9 0102 	ldrd	r0, r1, [r9], #8
 80041c6:	f7fc fa0f 	bl	80005e8 <__aeabi_dmul>
 80041ca:	4602      	mov	r2, r0
 80041cc:	460b      	mov	r3, r1
 80041ce:	e9dd 0102 	ldrd	r0, r1, [sp, #8]
 80041d2:	f7fc f853 	bl	800027c <__adddf3>
 80041d6:	e9cd 0102 	strd	r0, r1, [sp, #8]
 80041da:	3601      	adds	r6, #1
 80041dc:	9b05      	ldr	r3, [sp, #20]
 80041de:	429e      	cmp	r6, r3
 80041e0:	dded      	ble.n	80041be <__kernel_rem_pio2+0x9e>
 80041e2:	ed9d 7b02 	vldr	d7, [sp, #8]
 80041e6:	3701      	adds	r7, #1
 80041e8:	ecaa 7b02 	vstmia	sl!, {d7}
 80041ec:	3508      	adds	r5, #8
 80041ee:	e7cd      	b.n	800418c <__kernel_rem_pio2+0x6c>
 80041f0:	9b00      	ldr	r3, [sp, #0]
 80041f2:	f8dd 8000 	ldr.w	r8, [sp]
 80041f6:	aa0c      	add	r2, sp, #48	@ 0x30
 80041f8:	eb02 0383 	add.w	r3, r2, r3, lsl #2
 80041fc:	930a      	str	r3, [sp, #40]	@ 0x28
 80041fe:	9ba5      	ldr	r3, [sp, #660]	@ 0x294
 8004200:	eb03 0384 	add.w	r3, r3, r4, lsl #2
 8004204:	9309      	str	r3, [sp, #36]	@ 0x24
 8004206:	ea4f 03c8 	mov.w	r3, r8, lsl #3
 800420a:	930b      	str	r3, [sp, #44]	@ 0x2c
 800420c:	ab98      	add	r3, sp, #608	@ 0x260
 800420e:	eb03 03c8 	add.w	r3, r3, r8, lsl #3
 8004212:	ed13 7b28 	vldr	d7, [r3, #-160]	@ 0xffffff60
 8004216:	ed8d 7b02 	vstr	d7, [sp, #8]
 800421a:	ac0c      	add	r4, sp, #48	@ 0x30
 800421c:	ab70      	add	r3, sp, #448	@ 0x1c0
 800421e:	eb03 05c8 	add.w	r5, r3, r8, lsl #3
 8004222:	46a1      	mov	r9, r4
 8004224:	46c2      	mov	sl, r8
 8004226:	f1ba 0f00 	cmp.w	sl, #0
 800422a:	dc77      	bgt.n	800431c <__kernel_rem_pio2+0x1fc>
 800422c:	4658      	mov	r0, fp
 800422e:	ed9d 0b02 	vldr	d0, [sp, #8]
 8004232:	f000 fac5 	bl	80047c0 <scalbn>
 8004236:	ec57 6b10 	vmov	r6, r7, d0
 800423a:	2200      	movs	r2, #0
 800423c:	f04f 537f 	mov.w	r3, #1069547520	@ 0x3fc00000
 8004240:	4630      	mov	r0, r6
 8004242:	4639      	mov	r1, r7
 8004244:	f7fc f9d0 	bl	80005e8 <__aeabi_dmul>
 8004248:	ec41 0b10 	vmov	d0, r0, r1
 800424c:	f000 fb34 	bl	80048b8 <floor>
 8004250:	4b7c      	ldr	r3, [pc, #496]	@ (8004444 <__kernel_rem_pio2+0x324>)
 8004252:	ec51 0b10 	vmov	r0, r1, d0
 8004256:	2200      	movs	r2, #0
 8004258:	f7fc f9c6 	bl	80005e8 <__aeabi_dmul>
 800425c:	4602      	mov	r2, r0
 800425e:	460b      	mov	r3, r1
 8004260:	4630      	mov	r0, r6
 8004262:	4639      	mov	r1, r7
 8004264:	f7fc f808 	bl	8000278 <__aeabi_dsub>
 8004268:	460f      	mov	r7, r1
 800426a:	4606      	mov	r6, r0
 800426c:	f7fc fc56 	bl	8000b1c <__aeabi_d2iz>
 8004270:	9002      	str	r0, [sp, #8]
 8004272:	f7fc f94f 	bl	8000514 <__aeabi_i2d>
 8004276:	4602      	mov	r2, r0
 8004278:	460b      	mov	r3, r1
 800427a:	4630      	mov	r0, r6
 800427c:	4639      	mov	r1, r7
 800427e:	f7fb fffb 	bl	8000278 <__aeabi_dsub>
 8004282:	f1bb 0f00 	cmp.w	fp, #0
 8004286:	4606      	mov	r6, r0
 8004288:	460f      	mov	r7, r1
 800428a:	dd6c      	ble.n	8004366 <__kernel_rem_pio2+0x246>
 800428c:	f108 31ff 	add.w	r1, r8, #4294967295
 8004290:	ab0c      	add	r3, sp, #48	@ 0x30
 8004292:	9d02      	ldr	r5, [sp, #8]
 8004294:	f853 3021 	ldr.w	r3, [r3, r1, lsl #2]
 8004298:	f1cb 0018 	rsb	r0, fp, #24
 800429c:	fa43 f200 	asr.w	r2, r3, r0
 80042a0:	4415      	add	r5, r2
 80042a2:	4082      	lsls	r2, r0
 80042a4:	1a9b      	subs	r3, r3, r2
 80042a6:	aa0c      	add	r2, sp, #48	@ 0x30
 80042a8:	9502      	str	r5, [sp, #8]
 80042aa:	f842 3021 	str.w	r3, [r2, r1, lsl #2]
 80042ae:	f1cb 0217 	rsb	r2, fp, #23
 80042b2:	fa43 f902 	asr.w	r9, r3, r2
 80042b6:	f1b9 0f00 	cmp.w	r9, #0
 80042ba:	dd64      	ble.n	8004386 <__kernel_rem_pio2+0x266>
 80042bc:	9b02      	ldr	r3, [sp, #8]
 80042be:	2200      	movs	r2, #0
 80042c0:	3301      	adds	r3, #1
 80042c2:	9302      	str	r3, [sp, #8]
 80042c4:	4615      	mov	r5, r2
 80042c6:	f06f 417f 	mvn.w	r1, #4278190080	@ 0xff000000
 80042ca:	4590      	cmp	r8, r2
 80042cc:	f300 80a1 	bgt.w	8004412 <__kernel_rem_pio2+0x2f2>
 80042d0:	f1bb 0f00 	cmp.w	fp, #0
 80042d4:	dd07      	ble.n	80042e6 <__kernel_rem_pio2+0x1c6>
 80042d6:	f1bb 0f01 	cmp.w	fp, #1
 80042da:	f000 80c1 	beq.w	8004460 <__kernel_rem_pio2+0x340>
 80042de:	f1bb 0f02 	cmp.w	fp, #2
 80042e2:	f000 80c8 	beq.w	8004476 <__kernel_rem_pio2+0x356>
 80042e6:	f1b9 0f02 	cmp.w	r9, #2
 80042ea:	d14c      	bne.n	8004386 <__kernel_rem_pio2+0x266>
 80042ec:	4632      	mov	r2, r6
 80042ee:	463b      	mov	r3, r7
 80042f0:	4955      	ldr	r1, [pc, #340]	@ (8004448 <__kernel_rem_pio2+0x328>)
 80042f2:	2000      	movs	r0, #0
 80042f4:	f7fb ffc0 	bl	8000278 <__aeabi_dsub>
 80042f8:	4606      	mov	r6, r0
 80042fa:	460f      	mov	r7, r1
 80042fc:	2d00      	cmp	r5, #0
 80042fe:	d042      	beq.n	8004386 <__kernel_rem_pio2+0x266>
 8004300:	4658      	mov	r0, fp
 8004302:	ed9f 0b4d 	vldr	d0, [pc, #308]	@ 8004438 <__kernel_rem_pio2+0x318>
 8004306:	f000 fa5b 	bl	80047c0 <scalbn>
 800430a:	4630      	mov	r0, r6
 800430c:	4639      	mov	r1, r7
 800430e:	ec53 2b10 	vmov	r2, r3, d0
 8004312:	f7fb ffb1 	bl	8000278 <__aeabi_dsub>
 8004316:	4606      	mov	r6, r0
 8004318:	460f      	mov	r7, r1
 800431a:	e034      	b.n	8004386 <__kernel_rem_pio2+0x266>
 800431c:	4b4b      	ldr	r3, [pc, #300]	@ (800444c <__kernel_rem_pio2+0x32c>)
 800431e:	2200      	movs	r2, #0
 8004320:	e9dd 0102 	ldrd	r0, r1, [sp, #8]
 8004324:	f7fc f960 	bl	80005e8 <__aeabi_dmul>
 8004328:	f7fc fbf8 	bl	8000b1c <__aeabi_d2iz>
 800432c:	f7fc f8f2 	bl	8000514 <__aeabi_i2d>
 8004330:	4b47      	ldr	r3, [pc, #284]	@ (8004450 <__kernel_rem_pio2+0x330>)
 8004332:	2200      	movs	r2, #0
 8004334:	4606      	mov	r6, r0
 8004336:	460f      	mov	r7, r1
 8004338:	f7fc f956 	bl	80005e8 <__aeabi_dmul>
 800433c:	4602      	mov	r2, r0
 800433e:	460b      	mov	r3, r1
 8004340:	e9dd 0102 	ldrd	r0, r1, [sp, #8]
 8004344:	f7fb ff98 	bl	8000278 <__aeabi_dsub>
 8004348:	f7fc fbe8 	bl	8000b1c <__aeabi_d2iz>
 800434c:	e975 2302 	ldrd	r2, r3, [r5, #-8]!
 8004350:	f849 0b04 	str.w	r0, [r9], #4
 8004354:	4639      	mov	r1, r7
 8004356:	4630      	mov	r0, r6
 8004358:	f7fb ff90 	bl	800027c <__adddf3>
 800435c:	f10a 3aff 	add.w	sl, sl, #4294967295
 8004360:	e9cd 0102 	strd	r0, r1, [sp, #8]
 8004364:	e75f      	b.n	8004226 <__kernel_rem_pio2+0x106>
 8004366:	d107      	bne.n	8004378 <__kernel_rem_pio2+0x258>
 8004368:	f108 33ff 	add.w	r3, r8, #4294967295
 800436c:	aa0c      	add	r2, sp, #48	@ 0x30
 800436e:	f852 3023 	ldr.w	r3, [r2, r3, lsl #2]
 8004372:	ea4f 59e3 	mov.w	r9, r3, asr #23
 8004376:	e79e      	b.n	80042b6 <__kernel_rem_pio2+0x196>
 8004378:	4b36      	ldr	r3, [pc, #216]	@ (8004454 <__kernel_rem_pio2+0x334>)
 800437a:	2200      	movs	r2, #0
 800437c:	f7fc fbba 	bl	8000af4 <__aeabi_dcmpge>
 8004380:	2800      	cmp	r0, #0
 8004382:	d143      	bne.n	800440c <__kernel_rem_pio2+0x2ec>
 8004384:	4681      	mov	r9, r0
 8004386:	2200      	movs	r2, #0
 8004388:	2300      	movs	r3, #0
 800438a:	4630      	mov	r0, r6
 800438c:	4639      	mov	r1, r7
 800438e:	f7fc fb93 	bl	8000ab8 <__aeabi_dcmpeq>
 8004392:	2800      	cmp	r0, #0
 8004394:	f000 80c1 	beq.w	800451a <__kernel_rem_pio2+0x3fa>
 8004398:	f108 33ff 	add.w	r3, r8, #4294967295
 800439c:	2200      	movs	r2, #0
 800439e:	9900      	ldr	r1, [sp, #0]
 80043a0:	428b      	cmp	r3, r1
 80043a2:	da70      	bge.n	8004486 <__kernel_rem_pio2+0x366>
 80043a4:	2a00      	cmp	r2, #0
 80043a6:	f000 808b 	beq.w	80044c0 <__kernel_rem_pio2+0x3a0>
 80043aa:	f108 38ff 	add.w	r8, r8, #4294967295
 80043ae:	ab0c      	add	r3, sp, #48	@ 0x30
 80043b0:	f1ab 0b18 	sub.w	fp, fp, #24
 80043b4:	f853 3028 	ldr.w	r3, [r3, r8, lsl #2]
 80043b8:	2b00      	cmp	r3, #0
 80043ba:	d0f6      	beq.n	80043aa <__kernel_rem_pio2+0x28a>
 80043bc:	4658      	mov	r0, fp
 80043be:	ed9f 0b1e 	vldr	d0, [pc, #120]	@ 8004438 <__kernel_rem_pio2+0x318>
 80043c2:	f000 f9fd 	bl	80047c0 <scalbn>
 80043c6:	f108 0301 	add.w	r3, r8, #1
 80043ca:	00da      	lsls	r2, r3, #3
 80043cc:	9205      	str	r2, [sp, #20]
 80043ce:	ec55 4b10 	vmov	r4, r5, d0
 80043d2:	aa70      	add	r2, sp, #448	@ 0x1c0
 80043d4:	f8df b074 	ldr.w	fp, [pc, #116]	@ 800444c <__kernel_rem_pio2+0x32c>
 80043d8:	eb02 07c3 	add.w	r7, r2, r3, lsl #3
 80043dc:	4646      	mov	r6, r8
 80043de:	f04f 0a00 	mov.w	sl, #0
 80043e2:	2e00      	cmp	r6, #0
 80043e4:	f280 80d1 	bge.w	800458a <__kernel_rem_pio2+0x46a>
 80043e8:	4644      	mov	r4, r8
 80043ea:	2c00      	cmp	r4, #0
 80043ec:	f2c0 80ff 	blt.w	80045ee <__kernel_rem_pio2+0x4ce>
 80043f0:	4b19      	ldr	r3, [pc, #100]	@ (8004458 <__kernel_rem_pio2+0x338>)
 80043f2:	461f      	mov	r7, r3
 80043f4:	ab70      	add	r3, sp, #448	@ 0x1c0
 80043f6:	eb03 03c4 	add.w	r3, r3, r4, lsl #3
 80043fa:	9306      	str	r3, [sp, #24]
 80043fc:	f04f 0a00 	mov.w	sl, #0
 8004400:	f04f 0b00 	mov.w	fp, #0
 8004404:	2600      	movs	r6, #0
 8004406:	eba8 0504 	sub.w	r5, r8, r4
 800440a:	e0e4      	b.n	80045d6 <__kernel_rem_pio2+0x4b6>
 800440c:	f04f 0902 	mov.w	r9, #2
 8004410:	e754      	b.n	80042bc <__kernel_rem_pio2+0x19c>
 8004412:	f854 3b04 	ldr.w	r3, [r4], #4
 8004416:	bb0d      	cbnz	r5, 800445c <__kernel_rem_pio2+0x33c>
 8004418:	b123      	cbz	r3, 8004424 <__kernel_rem_pio2+0x304>
 800441a:	f1c3 7380 	rsb	r3, r3, #16777216	@ 0x1000000
 800441e:	f844 3c04 	str.w	r3, [r4, #-4]
 8004422:	2301      	movs	r3, #1
 8004424:	3201      	adds	r2, #1
 8004426:	461d      	mov	r5, r3
 8004428:	e74f      	b.n	80042ca <__kernel_rem_pio2+0x1aa>
 800442a:	bf00      	nop
 800442c:	f3af 8000 	nop.w
	...
 800443c:	3ff00000 	.word	0x3ff00000
 8004440:	08004cb0 	.word	0x08004cb0
 8004444:	40200000 	.word	0x40200000
 8004448:	3ff00000 	.word	0x3ff00000
 800444c:	3e700000 	.word	0x3e700000
 8004450:	41700000 	.word	0x41700000
 8004454:	3fe00000 	.word	0x3fe00000
 8004458:	08004c70 	.word	0x08004c70
 800445c:	1acb      	subs	r3, r1, r3
 800445e:	e7de      	b.n	800441e <__kernel_rem_pio2+0x2fe>
 8004460:	f108 32ff 	add.w	r2, r8, #4294967295
 8004464:	ab0c      	add	r3, sp, #48	@ 0x30
 8004466:	f853 3022 	ldr.w	r3, [r3, r2, lsl #2]
 800446a:	f3c3 0316 	ubfx	r3, r3, #0, #23
 800446e:	a90c      	add	r1, sp, #48	@ 0x30
 8004470:	f841 3022 	str.w	r3, [r1, r2, lsl #2]
 8004474:	e737      	b.n	80042e6 <__kernel_rem_pio2+0x1c6>
 8004476:	f108 32ff 	add.w	r2, r8, #4294967295
 800447a:	ab0c      	add	r3, sp, #48	@ 0x30
 800447c:	f853 3022 	ldr.w	r3, [r3, r2, lsl #2]
 8004480:	f3c3 0315 	ubfx	r3, r3, #0, #22
 8004484:	e7f3      	b.n	800446e <__kernel_rem_pio2+0x34e>
 8004486:	a90c      	add	r1, sp, #48	@ 0x30
 8004488:	f851 1023 	ldr.w	r1, [r1, r3, lsl #2]
 800448c:	3b01      	subs	r3, #1
 800448e:	430a      	orrs	r2, r1
 8004490:	e785      	b.n	800439e <__kernel_rem_pio2+0x27e>
 8004492:	3401      	adds	r4, #1
 8004494:	f853 2d04 	ldr.w	r2, [r3, #-4]!
 8004498:	2a00      	cmp	r2, #0
 800449a:	d0fa      	beq.n	8004492 <__kernel_rem_pio2+0x372>
 800449c:	9b0b      	ldr	r3, [sp, #44]	@ 0x2c
 800449e:	f503 7318 	add.w	r3, r3, #608	@ 0x260
 80044a2:	eb0d 0503 	add.w	r5, sp, r3
 80044a6:	9b06      	ldr	r3, [sp, #24]
 80044a8:	aa20      	add	r2, sp, #128	@ 0x80
 80044aa:	4443      	add	r3, r8
 80044ac:	f108 0701 	add.w	r7, r8, #1
 80044b0:	3d98      	subs	r5, #152	@ 0x98
 80044b2:	eb02 06c3 	add.w	r6, r2, r3, lsl #3
 80044b6:	4444      	add	r4, r8
 80044b8:	42bc      	cmp	r4, r7
 80044ba:	da04      	bge.n	80044c6 <__kernel_rem_pio2+0x3a6>
 80044bc:	46a0      	mov	r8, r4
 80044be:	e6a2      	b.n	8004206 <__kernel_rem_pio2+0xe6>
 80044c0:	9b0a      	ldr	r3, [sp, #40]	@ 0x28
 80044c2:	2401      	movs	r4, #1
 80044c4:	e7e6      	b.n	8004494 <__kernel_rem_pio2+0x374>
 80044c6:	9b09      	ldr	r3, [sp, #36]	@ 0x24
 80044c8:	f853 0027 	ldr.w	r0, [r3, r7, lsl #2]
 80044cc:	f7fc f822 	bl	8000514 <__aeabi_i2d>
 80044d0:	ed9f 7baf 	vldr	d7, [pc, #700]	@ 8004790 <__kernel_rem_pio2+0x670>
 80044d4:	e8e6 0102 	strd	r0, r1, [r6], #8
 80044d8:	ed8d 7b02 	vstr	d7, [sp, #8]
 80044dc:	f8dd 9020 	ldr.w	r9, [sp, #32]
 80044e0:	46b2      	mov	sl, r6
 80044e2:	f04f 0800 	mov.w	r8, #0
 80044e6:	9b05      	ldr	r3, [sp, #20]
 80044e8:	4598      	cmp	r8, r3
 80044ea:	dd05      	ble.n	80044f8 <__kernel_rem_pio2+0x3d8>
 80044ec:	ed9d 7b02 	vldr	d7, [sp, #8]
 80044f0:	3701      	adds	r7, #1
 80044f2:	eca5 7b02 	vstmia	r5!, {d7}
 80044f6:	e7df      	b.n	80044b8 <__kernel_rem_pio2+0x398>
 80044f8:	e97a 2302 	ldrd	r2, r3, [sl, #-8]!
 80044fc:	e8f9 0102 	ldrd	r0, r1, [r9], #8
 8004500:	f7fc f872 	bl	80005e8 <__aeabi_dmul>
 8004504:	4602      	mov	r2, r0
 8004506:	460b      	mov	r3, r1
 8004508:	e9dd 0102 	ldrd	r0, r1, [sp, #8]
 800450c:	f7fb feb6 	bl	800027c <__adddf3>
 8004510:	f108 0801 	add.w	r8, r8, #1
 8004514:	e9cd 0102 	strd	r0, r1, [sp, #8]
 8004518:	e7e5      	b.n	80044e6 <__kernel_rem_pio2+0x3c6>
 800451a:	f1cb 0000 	rsb	r0, fp, #0
 800451e:	ec47 6b10 	vmov	d0, r6, r7
 8004522:	f000 f94d 	bl	80047c0 <scalbn>
 8004526:	ec55 4b10 	vmov	r4, r5, d0
 800452a:	4b9b      	ldr	r3, [pc, #620]	@ (8004798 <__kernel_rem_pio2+0x678>)
 800452c:	2200      	movs	r2, #0
 800452e:	4620      	mov	r0, r4
 8004530:	4629      	mov	r1, r5
 8004532:	f7fc fadf 	bl	8000af4 <__aeabi_dcmpge>
 8004536:	b300      	cbz	r0, 800457a <__kernel_rem_pio2+0x45a>
 8004538:	4b98      	ldr	r3, [pc, #608]	@ (800479c <__kernel_rem_pio2+0x67c>)
 800453a:	2200      	movs	r2, #0
 800453c:	4620      	mov	r0, r4
 800453e:	4629      	mov	r1, r5
 8004540:	f7fc f852 	bl	80005e8 <__aeabi_dmul>
 8004544:	f7fc faea 	bl	8000b1c <__aeabi_d2iz>
 8004548:	4606      	mov	r6, r0
 800454a:	f7fb ffe3 	bl	8000514 <__aeabi_i2d>
 800454e:	4b92      	ldr	r3, [pc, #584]	@ (8004798 <__kernel_rem_pio2+0x678>)
 8004550:	2200      	movs	r2, #0
 8004552:	f7fc f849 	bl	80005e8 <__aeabi_dmul>
 8004556:	460b      	mov	r3, r1
 8004558:	4602      	mov	r2, r0
 800455a:	4629      	mov	r1, r5
 800455c:	4620      	mov	r0, r4
 800455e:	f7fb fe8b 	bl	8000278 <__aeabi_dsub>
 8004562:	f7fc fadb 	bl	8000b1c <__aeabi_d2iz>
 8004566:	ab0c      	add	r3, sp, #48	@ 0x30
 8004568:	f10b 0b18 	add.w	fp, fp, #24
 800456c:	f843 0028 	str.w	r0, [r3, r8, lsl #2]
 8004570:	f108 0801 	add.w	r8, r8, #1
 8004574:	f843 6028 	str.w	r6, [r3, r8, lsl #2]
 8004578:	e720      	b.n	80043bc <__kernel_rem_pio2+0x29c>
 800457a:	4620      	mov	r0, r4
 800457c:	4629      	mov	r1, r5
 800457e:	f7fc facd 	bl	8000b1c <__aeabi_d2iz>
 8004582:	ab0c      	add	r3, sp, #48	@ 0x30
 8004584:	f843 0028 	str.w	r0, [r3, r8, lsl #2]
 8004588:	e718      	b.n	80043bc <__kernel_rem_pio2+0x29c>
 800458a:	ab0c      	add	r3, sp, #48	@ 0x30
 800458c:	f853 0026 	ldr.w	r0, [r3, r6, lsl #2]
 8004590:	f7fb ffc0 	bl	8000514 <__aeabi_i2d>
 8004594:	4622      	mov	r2, r4
 8004596:	462b      	mov	r3, r5
 8004598:	f7fc f826 	bl	80005e8 <__aeabi_dmul>
 800459c:	4652      	mov	r2, sl
 800459e:	e967 0102 	strd	r0, r1, [r7, #-8]!
 80045a2:	465b      	mov	r3, fp
 80045a4:	4620      	mov	r0, r4
 80045a6:	4629      	mov	r1, r5
 80045a8:	f7fc f81e 	bl	80005e8 <__aeabi_dmul>
 80045ac:	3e01      	subs	r6, #1
 80045ae:	4604      	mov	r4, r0
 80045b0:	460d      	mov	r5, r1
 80045b2:	e716      	b.n	80043e2 <__kernel_rem_pio2+0x2c2>
 80045b4:	9906      	ldr	r1, [sp, #24]
 80045b6:	e8f1 2302 	ldrd	r2, r3, [r1], #8
 80045ba:	9106      	str	r1, [sp, #24]
 80045bc:	e8f7 0102 	ldrd	r0, r1, [r7], #8
 80045c0:	f7fc f812 	bl	80005e8 <__aeabi_dmul>
 80045c4:	4602      	mov	r2, r0
 80045c6:	460b      	mov	r3, r1
 80045c8:	4650      	mov	r0, sl
 80045ca:	4659      	mov	r1, fp
 80045cc:	f7fb fe56 	bl	800027c <__adddf3>
 80045d0:	3601      	adds	r6, #1
 80045d2:	4682      	mov	sl, r0
 80045d4:	468b      	mov	fp, r1
 80045d6:	9b00      	ldr	r3, [sp, #0]
 80045d8:	429e      	cmp	r6, r3
 80045da:	dc01      	bgt.n	80045e0 <__kernel_rem_pio2+0x4c0>
 80045dc:	42ae      	cmp	r6, r5
 80045de:	dde9      	ble.n	80045b4 <__kernel_rem_pio2+0x494>
 80045e0:	ab48      	add	r3, sp, #288	@ 0x120
 80045e2:	eb03 05c5 	add.w	r5, r3, r5, lsl #3
 80045e6:	e9c5 ab00 	strd	sl, fp, [r5]
 80045ea:	3c01      	subs	r4, #1
 80045ec:	e6fd      	b.n	80043ea <__kernel_rem_pio2+0x2ca>
 80045ee:	9ba4      	ldr	r3, [sp, #656]	@ 0x290
 80045f0:	2b02      	cmp	r3, #2
 80045f2:	dc0b      	bgt.n	800460c <__kernel_rem_pio2+0x4ec>
 80045f4:	2b00      	cmp	r3, #0
 80045f6:	dc35      	bgt.n	8004664 <__kernel_rem_pio2+0x544>
 80045f8:	d059      	beq.n	80046ae <__kernel_rem_pio2+0x58e>
 80045fa:	9b02      	ldr	r3, [sp, #8]
 80045fc:	f003 0007 	and.w	r0, r3, #7
 8004600:	f50d 7d19 	add.w	sp, sp, #612	@ 0x264
 8004604:	ecbd 8b02 	vpop	{d8}
 8004608:	e8bd 8ff0 	ldmia.w	sp!, {r4, r5, r6, r7, r8, r9, sl, fp, pc}
 800460c:	9ba4      	ldr	r3, [sp, #656]	@ 0x290
 800460e:	2b03      	cmp	r3, #3
 8004610:	d1f3      	bne.n	80045fa <__kernel_rem_pio2+0x4da>
 8004612:	9b05      	ldr	r3, [sp, #20]
 8004614:	f503 7318 	add.w	r3, r3, #608	@ 0x260
 8004618:	eb0d 0403 	add.w	r4, sp, r3
 800461c:	f5a4 74a4 	sub.w	r4, r4, #328	@ 0x148
 8004620:	4625      	mov	r5, r4
 8004622:	46c2      	mov	sl, r8
 8004624:	f1ba 0f00 	cmp.w	sl, #0
 8004628:	dc69      	bgt.n	80046fe <__kernel_rem_pio2+0x5de>
 800462a:	4645      	mov	r5, r8
 800462c:	2d01      	cmp	r5, #1
 800462e:	f300 8087 	bgt.w	8004740 <__kernel_rem_pio2+0x620>
 8004632:	9c05      	ldr	r4, [sp, #20]
 8004634:	ab48      	add	r3, sp, #288	@ 0x120
 8004636:	441c      	add	r4, r3
 8004638:	2000      	movs	r0, #0
 800463a:	2100      	movs	r1, #0
 800463c:	f1b8 0f01 	cmp.w	r8, #1
 8004640:	f300 809c 	bgt.w	800477c <__kernel_rem_pio2+0x65c>
 8004644:	e9dd 5648 	ldrd	r5, r6, [sp, #288]	@ 0x120
 8004648:	e9dd 784a 	ldrd	r7, r8, [sp, #296]	@ 0x128
 800464c:	f1b9 0f00 	cmp.w	r9, #0
 8004650:	f040 80a6 	bne.w	80047a0 <__kernel_rem_pio2+0x680>
 8004654:	9b04      	ldr	r3, [sp, #16]
 8004656:	e9c3 5600 	strd	r5, r6, [r3]
 800465a:	e9c3 7802 	strd	r7, r8, [r3, #8]
 800465e:	e9c3 0104 	strd	r0, r1, [r3, #16]
 8004662:	e7ca      	b.n	80045fa <__kernel_rem_pio2+0x4da>
 8004664:	9d05      	ldr	r5, [sp, #20]
 8004666:	ab48      	add	r3, sp, #288	@ 0x120
 8004668:	441d      	add	r5, r3
 800466a:	4644      	mov	r4, r8
 800466c:	2000      	movs	r0, #0
 800466e:	2100      	movs	r1, #0
 8004670:	2c00      	cmp	r4, #0
 8004672:	da35      	bge.n	80046e0 <__kernel_rem_pio2+0x5c0>
 8004674:	f1b9 0f00 	cmp.w	r9, #0
 8004678:	d038      	beq.n	80046ec <__kernel_rem_pio2+0x5cc>
 800467a:	4602      	mov	r2, r0
 800467c:	f101 4300 	add.w	r3, r1, #2147483648	@ 0x80000000
 8004680:	9c04      	ldr	r4, [sp, #16]
 8004682:	e9c4 2300 	strd	r2, r3, [r4]
 8004686:	4602      	mov	r2, r0
 8004688:	460b      	mov	r3, r1
 800468a:	e9dd 0148 	ldrd	r0, r1, [sp, #288]	@ 0x120
 800468e:	f7fb fdf3 	bl	8000278 <__aeabi_dsub>
 8004692:	ad4a      	add	r5, sp, #296	@ 0x128
 8004694:	2401      	movs	r4, #1
 8004696:	45a0      	cmp	r8, r4
 8004698:	da2b      	bge.n	80046f2 <__kernel_rem_pio2+0x5d2>
 800469a:	f1b9 0f00 	cmp.w	r9, #0
 800469e:	d002      	beq.n	80046a6 <__kernel_rem_pio2+0x586>
 80046a0:	f101 4300 	add.w	r3, r1, #2147483648	@ 0x80000000
 80046a4:	4619      	mov	r1, r3
 80046a6:	9b04      	ldr	r3, [sp, #16]
 80046a8:	e9c3 0102 	strd	r0, r1, [r3, #8]
 80046ac:	e7a5      	b.n	80045fa <__kernel_rem_pio2+0x4da>
 80046ae:	9c05      	ldr	r4, [sp, #20]
 80046b0:	ab48      	add	r3, sp, #288	@ 0x120
 80046b2:	441c      	add	r4, r3
 80046b4:	2000      	movs	r0, #0
 80046b6:	2100      	movs	r1, #0
 80046b8:	f1b8 0f00 	cmp.w	r8, #0
 80046bc:	da09      	bge.n	80046d2 <__kernel_rem_pio2+0x5b2>
 80046be:	f1b9 0f00 	cmp.w	r9, #0
 80046c2:	d002      	beq.n	80046ca <__kernel_rem_pio2+0x5aa>
 80046c4:	f101 4300 	add.w	r3, r1, #2147483648	@ 0x80000000
 80046c8:	4619      	mov	r1, r3
 80046ca:	9b04      	ldr	r3, [sp, #16]
 80046cc:	e9c3 0100 	strd	r0, r1, [r3]
 80046d0:	e793      	b.n	80045fa <__kernel_rem_pio2+0x4da>
 80046d2:	e974 2302 	ldrd	r2, r3, [r4, #-8]!
 80046d6:	f7fb fdd1 	bl	800027c <__adddf3>
 80046da:	f108 38ff 	add.w	r8, r8, #4294967295
 80046de:	e7eb      	b.n	80046b8 <__kernel_rem_pio2+0x598>
 80046e0:	e975 2302 	ldrd	r2, r3, [r5, #-8]!
 80046e4:	f7fb fdca 	bl	800027c <__adddf3>
 80046e8:	3c01      	subs	r4, #1
 80046ea:	e7c1      	b.n	8004670 <__kernel_rem_pio2+0x550>
 80046ec:	4602      	mov	r2, r0
 80046ee:	460b      	mov	r3, r1
 80046f0:	e7c6      	b.n	8004680 <__kernel_rem_pio2+0x560>
 80046f2:	e8f5 2302 	ldrd	r2, r3, [r5], #8
 80046f6:	f7fb fdc1 	bl	800027c <__adddf3>
 80046fa:	3401      	adds	r4, #1
 80046fc:	e7cb      	b.n	8004696 <__kernel_rem_pio2+0x576>
 80046fe:	ed35 7b02 	vldmdb	r5!, {d7}
 8004702:	ed8d 7b00 	vstr	d7, [sp]
 8004706:	ed95 7b02 	vldr	d7, [r5, #8]
 800470a:	e9dd 0100 	ldrd	r0, r1, [sp]
 800470e:	ec53 2b17 	vmov	r2, r3, d7
 8004712:	ed8d 7b06 	vstr	d7, [sp, #24]
 8004716:	f7fb fdb1 	bl	800027c <__adddf3>
 800471a:	4602      	mov	r2, r0
 800471c:	460b      	mov	r3, r1
 800471e:	4606      	mov	r6, r0
 8004720:	460f      	mov	r7, r1
 8004722:	e9dd 0100 	ldrd	r0, r1, [sp]
 8004726:	f7fb fda7 	bl	8000278 <__aeabi_dsub>
 800472a:	e9dd 2306 	ldrd	r2, r3, [sp, #24]
 800472e:	f7fb fda5 	bl	800027c <__adddf3>
 8004732:	f10a 3aff 	add.w	sl, sl, #4294967295
 8004736:	e9c5 0102 	strd	r0, r1, [r5, #8]
 800473a:	e9c5 6700 	strd	r6, r7, [r5]
 800473e:	e771      	b.n	8004624 <__kernel_rem_pio2+0x504>
 8004740:	ed34 7b02 	vldmdb	r4!, {d7}
 8004744:	e9d4 ab02 	ldrd	sl, fp, [r4, #8]
 8004748:	ec51 0b17 	vmov	r0, r1, d7
 800474c:	4652      	mov	r2, sl
 800474e:	465b      	mov	r3, fp
 8004750:	ed8d 7b00 	vstr	d7, [sp]
 8004754:	f7fb fd92 	bl	800027c <__adddf3>
 8004758:	4602      	mov	r2, r0
 800475a:	460b      	mov	r3, r1
 800475c:	4606      	mov	r6, r0
 800475e:	460f      	mov	r7, r1
 8004760:	e9dd 0100 	ldrd	r0, r1, [sp]
 8004764:	f7fb fd88 	bl	8000278 <__aeabi_dsub>
 8004768:	4652      	mov	r2, sl
 800476a:	465b      	mov	r3, fp
 800476c:	f7fb fd86 	bl	800027c <__adddf3>
 8004770:	3d01      	subs	r5, #1
 8004772:	e9c4 0102 	strd	r0, r1, [r4, #8]
 8004776:	e9c4 6700 	strd	r6, r7, [r4]
 800477a:	e757      	b.n	800462c <__kernel_rem_pio2+0x50c>
 800477c:	e974 2302 	ldrd	r2, r3, [r4, #-8]!
 8004780:	f7fb fd7c 	bl	800027c <__adddf3>
 8004784:	f108 38ff 	add.w	r8, r8, #4294967295
 8004788:	e758      	b.n	800463c <__kernel_rem_pio2+0x51c>
 800478a:	bf00      	nop
 800478c:	f3af 8000 	nop.w
	...
 8004798:	41700000 	.word	0x41700000
 800479c:	3e700000 	.word	0x3e700000
 80047a0:	9b04      	ldr	r3, [sp, #16]
 80047a2:	9a04      	ldr	r2, [sp, #16]
 80047a4:	601d      	str	r5, [r3, #0]
 80047a6:	f106 4400 	add.w	r4, r6, #2147483648	@ 0x80000000
 80047aa:	605c      	str	r4, [r3, #4]
 80047ac:	609f      	str	r7, [r3, #8]
 80047ae:	f108 4300 	add.w	r3, r8, #2147483648	@ 0x80000000
 80047b2:	60d3      	str	r3, [r2, #12]
 80047b4:	f101 4300 	add.w	r3, r1, #2147483648	@ 0x80000000
 80047b8:	6110      	str	r0, [r2, #16]
 80047ba:	6153      	str	r3, [r2, #20]
 80047bc:	e71d      	b.n	80045fa <__kernel_rem_pio2+0x4da>
 80047be:	bf00      	nop

080047c0 <scalbn>:
 80047c0:	b570      	push	{r4, r5, r6, lr}
 80047c2:	ec55 4b10 	vmov	r4, r5, d0
 80047c6:	f3c5 510a 	ubfx	r1, r5, #20, #11
 80047ca:	4606      	mov	r6, r0
 80047cc:	462b      	mov	r3, r5
 80047ce:	b991      	cbnz	r1, 80047f6 <scalbn+0x36>
 80047d0:	f025 4300 	bic.w	r3, r5, #2147483648	@ 0x80000000
 80047d4:	4323      	orrs	r3, r4
 80047d6:	d03b      	beq.n	8004850 <scalbn+0x90>
 80047d8:	4b33      	ldr	r3, [pc, #204]	@ (80048a8 <scalbn+0xe8>)
 80047da:	4620      	mov	r0, r4
 80047dc:	4629      	mov	r1, r5
 80047de:	2200      	movs	r2, #0
 80047e0:	f7fb ff02 	bl	80005e8 <__aeabi_dmul>
 80047e4:	4b31      	ldr	r3, [pc, #196]	@ (80048ac <scalbn+0xec>)
 80047e6:	429e      	cmp	r6, r3
 80047e8:	4604      	mov	r4, r0
 80047ea:	460d      	mov	r5, r1
 80047ec:	da0f      	bge.n	800480e <scalbn+0x4e>
 80047ee:	a326      	add	r3, pc, #152	@ (adr r3, 8004888 <scalbn+0xc8>)
 80047f0:	e9d3 2300 	ldrd	r2, r3, [r3]
 80047f4:	e01e      	b.n	8004834 <scalbn+0x74>
 80047f6:	f240 72ff 	movw	r2, #2047	@ 0x7ff
 80047fa:	4291      	cmp	r1, r2
 80047fc:	d10b      	bne.n	8004816 <scalbn+0x56>
 80047fe:	4622      	mov	r2, r4
 8004800:	4620      	mov	r0, r4
 8004802:	4629      	mov	r1, r5
 8004804:	f7fb fd3a 	bl	800027c <__adddf3>
 8004808:	4604      	mov	r4, r0
 800480a:	460d      	mov	r5, r1
 800480c:	e020      	b.n	8004850 <scalbn+0x90>
 800480e:	460b      	mov	r3, r1
 8004810:	f3c1 510a 	ubfx	r1, r1, #20, #11
 8004814:	3936      	subs	r1, #54	@ 0x36
 8004816:	f24c 3250 	movw	r2, #50000	@ 0xc350
 800481a:	4296      	cmp	r6, r2
 800481c:	dd0d      	ble.n	800483a <scalbn+0x7a>
 800481e:	2d00      	cmp	r5, #0
 8004820:	a11b      	add	r1, pc, #108	@ (adr r1, 8004890 <scalbn+0xd0>)
 8004822:	e9d1 0100 	ldrd	r0, r1, [r1]
 8004826:	da02      	bge.n	800482e <scalbn+0x6e>
 8004828:	a11b      	add	r1, pc, #108	@ (adr r1, 8004898 <scalbn+0xd8>)
 800482a:	e9d1 0100 	ldrd	r0, r1, [r1]
 800482e:	a318      	add	r3, pc, #96	@ (adr r3, 8004890 <scalbn+0xd0>)
 8004830:	e9d3 2300 	ldrd	r2, r3, [r3]
 8004834:	f7fb fed8 	bl	80005e8 <__aeabi_dmul>
 8004838:	e7e6      	b.n	8004808 <scalbn+0x48>
 800483a:	1872      	adds	r2, r6, r1
 800483c:	f240 71fe 	movw	r1, #2046	@ 0x7fe
 8004840:	428a      	cmp	r2, r1
 8004842:	dcec      	bgt.n	800481e <scalbn+0x5e>
 8004844:	2a00      	cmp	r2, #0
 8004846:	dd06      	ble.n	8004856 <scalbn+0x96>
 8004848:	f36f 531e 	bfc	r3, #20, #11
 800484c:	ea43 5502 	orr.w	r5, r3, r2, lsl #20
 8004850:	ec45 4b10 	vmov	d0, r4, r5
 8004854:	bd70      	pop	{r4, r5, r6, pc}
 8004856:	f112 0f35 	cmn.w	r2, #53	@ 0x35
 800485a:	da08      	bge.n	800486e <scalbn+0xae>
 800485c:	2d00      	cmp	r5, #0
 800485e:	a10a      	add	r1, pc, #40	@ (adr r1, 8004888 <scalbn+0xc8>)
 8004860:	e9d1 0100 	ldrd	r0, r1, [r1]
 8004864:	dac3      	bge.n	80047ee <scalbn+0x2e>
 8004866:	a10e      	add	r1, pc, #56	@ (adr r1, 80048a0 <scalbn+0xe0>)
 8004868:	e9d1 0100 	ldrd	r0, r1, [r1]
 800486c:	e7bf      	b.n	80047ee <scalbn+0x2e>
 800486e:	3236      	adds	r2, #54	@ 0x36
 8004870:	f36f 531e 	bfc	r3, #20, #11
 8004874:	ea43 5502 	orr.w	r5, r3, r2, lsl #20
 8004878:	4620      	mov	r0, r4
 800487a:	4b0d      	ldr	r3, [pc, #52]	@ (80048b0 <scalbn+0xf0>)
 800487c:	4629      	mov	r1, r5
 800487e:	2200      	movs	r2, #0
 8004880:	e7d8      	b.n	8004834 <scalbn+0x74>
 8004882:	bf00      	nop
 8004884:	f3af 8000 	nop.w
 8004888:	c2f8f359 	.word	0xc2f8f359
 800488c:	01a56e1f 	.word	0x01a56e1f
 8004890:	8800759c 	.word	0x8800759c
 8004894:	7e37e43c 	.word	0x7e37e43c
 8004898:	8800759c 	.word	0x8800759c
 800489c:	fe37e43c 	.word	0xfe37e43c
 80048a0:	c2f8f359 	.word	0xc2f8f359
 80048a4:	81a56e1f 	.word	0x81a56e1f
 80048a8:	43500000 	.word	0x43500000
 80048ac:	ffff3cb0 	.word	0xffff3cb0
 80048b0:	3c900000 	.word	0x3c900000
 80048b4:	00000000 	.word	0x00000000

080048b8 <floor>:
 80048b8:	ec51 0b10 	vmov	r0, r1, d0
 80048bc:	f3c1 530a 	ubfx	r3, r1, #20, #11
 80048c0:	e92d 41f0 	stmdb	sp!, {r4, r5, r6, r7, r8, lr}
 80048c4:	f2a3 36ff 	subw	r6, r3, #1023	@ 0x3ff
 80048c8:	2e13      	cmp	r6, #19
 80048ca:	460c      	mov	r4, r1
 80048cc:	4605      	mov	r5, r0
 80048ce:	4680      	mov	r8, r0
 80048d0:	dc34      	bgt.n	800493c <floor+0x84>
 80048d2:	2e00      	cmp	r6, #0
 80048d4:	da17      	bge.n	8004906 <floor+0x4e>
 80048d6:	a332      	add	r3, pc, #200	@ (adr r3, 80049a0 <floor+0xe8>)
 80048d8:	e9d3 2300 	ldrd	r2, r3, [r3]
 80048dc:	f7fb fcce 	bl	800027c <__adddf3>
 80048e0:	2200      	movs	r2, #0
 80048e2:	2300      	movs	r3, #0
 80048e4:	f7fc f910 	bl	8000b08 <__aeabi_dcmpgt>
 80048e8:	b150      	cbz	r0, 8004900 <floor+0x48>
 80048ea:	2c00      	cmp	r4, #0
 80048ec:	da55      	bge.n	800499a <floor+0xe2>
 80048ee:	f024 4400 	bic.w	r4, r4, #2147483648	@ 0x80000000
 80048f2:	432c      	orrs	r4, r5
 80048f4:	2500      	movs	r5, #0
 80048f6:	42ac      	cmp	r4, r5
 80048f8:	4c2b      	ldr	r4, [pc, #172]	@ (80049a8 <floor+0xf0>)
 80048fa:	bf08      	it	eq
 80048fc:	f04f 4400 	moveq.w	r4, #2147483648	@ 0x80000000
 8004900:	4621      	mov	r1, r4
 8004902:	4628      	mov	r0, r5
 8004904:	e023      	b.n	800494e <floor+0x96>
 8004906:	4f29      	ldr	r7, [pc, #164]	@ (80049ac <floor+0xf4>)
 8004908:	4137      	asrs	r7, r6
 800490a:	ea01 0307 	and.w	r3, r1, r7
 800490e:	4303      	orrs	r3, r0
 8004910:	d01d      	beq.n	800494e <floor+0x96>
 8004912:	a323      	add	r3, pc, #140	@ (adr r3, 80049a0 <floor+0xe8>)
 8004914:	e9d3 2300 	ldrd	r2, r3, [r3]
 8004918:	f7fb fcb0 	bl	800027c <__adddf3>
 800491c:	2200      	movs	r2, #0
 800491e:	2300      	movs	r3, #0
 8004920:	f7fc f8f2 	bl	8000b08 <__aeabi_dcmpgt>
 8004924:	2800      	cmp	r0, #0
 8004926:	d0eb      	beq.n	8004900 <floor+0x48>
 8004928:	2c00      	cmp	r4, #0
 800492a:	bfbe      	ittt	lt
 800492c:	f44f 1380 	movlt.w	r3, #1048576	@ 0x100000
 8004930:	4133      	asrlt	r3, r6
 8004932:	18e4      	addlt	r4, r4, r3
 8004934:	ea24 0407 	bic.w	r4, r4, r7
 8004938:	2500      	movs	r5, #0
 800493a:	e7e1      	b.n	8004900 <floor+0x48>
 800493c:	2e33      	cmp	r6, #51	@ 0x33
 800493e:	dd0a      	ble.n	8004956 <floor+0x9e>
 8004940:	f5b6 6f80 	cmp.w	r6, #1024	@ 0x400
 8004944:	d103      	bne.n	800494e <floor+0x96>
 8004946:	4602      	mov	r2, r0
 8004948:	460b      	mov	r3, r1
 800494a:	f7fb fc97 	bl	800027c <__adddf3>
 800494e:	ec41 0b10 	vmov	d0, r0, r1
 8004952:	e8bd 81f0 	ldmia.w	sp!, {r4, r5, r6, r7, r8, pc}
 8004956:	f2a3 4313 	subw	r3, r3, #1043	@ 0x413
 800495a:	f04f 37ff 	mov.w	r7, #4294967295
 800495e:	40df      	lsrs	r7, r3
 8004960:	4207      	tst	r7, r0
 8004962:	d0f4      	beq.n	800494e <floor+0x96>
 8004964:	a30e      	add	r3, pc, #56	@ (adr r3, 80049a0 <floor+0xe8>)
 8004966:	e9d3 2300 	ldrd	r2, r3, [r3]
 800496a:	f7fb fc87 	bl	800027c <__adddf3>
 800496e:	2200      	movs	r2, #0
 8004970:	2300      	movs	r3, #0
 8004972:	f7fc f8c9 	bl	8000b08 <__aeabi_dcmpgt>
 8004976:	2800      	cmp	r0, #0
 8004978:	d0c2      	beq.n	8004900 <floor+0x48>
 800497a:	2c00      	cmp	r4, #0
 800497c:	da0a      	bge.n	8004994 <floor+0xdc>
 800497e:	2e14      	cmp	r6, #20
 8004980:	d101      	bne.n	8004986 <floor+0xce>
 8004982:	3401      	adds	r4, #1
 8004984:	e006      	b.n	8004994 <floor+0xdc>
 8004986:	f1c6 0634 	rsb	r6, r6, #52	@ 0x34
 800498a:	2301      	movs	r3, #1
 800498c:	40b3      	lsls	r3, r6
 800498e:	441d      	add	r5, r3
 8004990:	4545      	cmp	r5, r8
 8004992:	d3f6      	bcc.n	8004982 <floor+0xca>
 8004994:	ea25 0507 	bic.w	r5, r5, r7
 8004998:	e7b2      	b.n	8004900 <floor+0x48>
 800499a:	2500      	movs	r5, #0
 800499c:	462c      	mov	r4, r5
 800499e:	e7af      	b.n	8004900 <floor+0x48>
 80049a0:	8800759c 	.word	0x8800759c
 80049a4:	7e37e43c 	.word	0x7e37e43c
 80049a8:	bff00000 	.word	0xbff00000
 80049ac:	000fffff 	.word	0x000fffff

080049b0 <_init>:
 80049b0:	b5f8      	push	{r3, r4, r5, r6, r7, lr}
 80049b2:	bf00      	nop
 80049b4:	bcf8      	pop	{r3, r4, r5, r6, r7}
 80049b6:	bc08      	pop	{r3}
 80049b8:	469e      	mov	lr, r3
 80049ba:	4770      	bx	lr

080049bc <_fini>:
 80049bc:	b5f8      	push	{r3, r4, r5, r6, r7, lr}
 80049be:	bf00      	nop
 80049c0:	bcf8      	pop	{r3, r4, r5, r6, r7}
 80049c2:	bc08      	pop	{r3}
 80049c4:	469e      	mov	lr, r3
 80049c6:	4770      	bx	lr
